Certificate:
    Data:
        Version: 3 (0x2)
        Serial Number: 1 (0x1)
    Signature Algorithm: sha1WithRSAEncryption
        Issuer: C=Hn, O=Unitec Root, OU=Unitec, CN=Unitec CA
        Validity
            Not Before: Jan  3 06:24:20 2020 GMT
            Not After : Jan  2 06:24:20 2025 GMT
        Subject: C=Hn, O=Unitec Root, OU=Estudiante Unitec, CN=Max Lujan
        Subject Public Key Info:
            Public Key Algorithm: rsaEncryption
                Public-Key: (2048 bit)
                Modulus:
                    00:b5:f8:15:f2:33:d3:58:31:36:0a:2d:fe:91:d6:
                    66:6e:13:d8:ce:0c:b5:3f:0c:c3:14:67:5c:6d:96:
                    03:a8:ae:1d:67:e5:1e:7d:f7:6b:be:47:47:26:23:
                    60:e0:d4:ce:e5:13:2b:ce:e8:a0:96:45:26:4e:02:
                    bc:71:a3:6a:85:7c:00:47:43:c3:ba:82:ab:1e:52:
                    4d:d6:62:ed:7b:7e:9b:35:30:27:c0:1e:cd:66:ce:
                    42:fa:a5:4a:c0:bf:ac:df:73:23:63:a2:1a:04:26:
                    15:8f:ed:00:14:d5:39:2e:3f:06:da:85:49:45:4d:
                    17:eb:3e:69:a1:13:e7:10:87:5f:f2:cf:89:38:7b:
                    8b:b7:cf:84:49:88:14:f3:b3:90:0b:b8:2d:f0:82:
                    7f:b6:14:29:9d:41:7b:2b:ea:c2:e3:a7:b7:ff:da:
                    ac:e0:83:45:5b:fc:f5:0d:2c:f0:f3:6a:56:f4:02:
                    4b:46:6f:05:eb:6a:70:ac:3e:cd:b3:dd:49:c0:4c:
                    0a:1e:73:48:d4:58:83:da:6f:b2:8a:3f:12:37:be:
                    61:e8:93:ba:0d:bc:33:02:2a:1b:7a:67:d6:9b:7a:
                    0b:fb:be:f4:f8:fc:a5:b4:6d:57:cd:66:0a:3b:7b:
                    52:e0:b7:9a:bb:40:8a:0f:c4:d3:68:67:d8:60:5b:
                    d1:59
                Exponent: 65537 (0x10001)
        X509v3 extensions:
            X509v3 Key Usage: critical
                Digital Signature
            X509v3 Basic Constraints: 
                CA:FALSE
            X509v3 Extended Key Usage: critical
                Code Signing
            X509v3 Subject Key Identifier: 
                F6:FD:78:28:BA:FB:5C:E0:A5:1F:48:33:F9:72:D8:D1:59:5F:7C:02
            X509v3 Authority Key Identifier: 
                keyid:6A:72:29:0D:AD:B5:7C:3E:2C:99:C3:8F:1B:54:D0:95:EA:85:AA:6F

            Authority Information Access: 
                CA Issuers - URI:http://untec.edu/unitec-ca.cer

            X509v3 CRL Distribution Points: 

                Full Name:
                  URI:http://untec.edu/unitec-ca.crl

    Signature Algorithm: sha1WithRSAEncryption
         09:17:82:dc:df:2b:2e:cc:7b:a6:29:4c:de:ae:11:f9:18:cf:
         5e:ad:91:96:4c:c5:95:8c:5b:d4:ba:68:72:61:57:1e:87:ff:
         50:b2:49:c6:19:1f:36:38:31:96:29:4d:18:a9:4d:86:d7:9e:
         1f:9f:57:c0:8f:4f:6c:c6:0a:60:3a:c3:b4:e8:eb:79:16:66:
         a5:3b:d6:64:99:f7:c8:30:f3:88:4b:39:ae:7a:b8:eb:79:09:
         bd:d4:a6:5f:73:25:9c:a9:c8:44:ad:3d:c1:02:1f:23:57:f1:
         95:f2:3c:bd:f7:ef:d0:e1:79:51:80:ed:90:e4:aa:a1:53:d9:
         1a:ad:76:7f:fc:ac:82:2f:b5:3d:97:c0:a1:c9:84:d7:68:81:
         fa:c9:d1:f2:d4:35:aa:51:ac:6a:04:7c:9b:93:e9:97:fa:12:
         36:12:27:db:60:ab:39:41:da:8b:0a:e1:03:47:02:af:d6:c4:
         03:8d:e1:7d:76:ac:1c:58:24:ba:10:81:e7:76:08:e7:ff:97:
         3a:46:20:e2:25:72:e4:7f:5b:aa:f1:5d:d5:9e:e9:c1:89:3b:
         cb:32:67:1f:19:b4:b5:7a:79:be:d0:7d:67:19:de:6d:1b:06:
         f0:2c:01:0a:78:7f:e6:fb:01:d4:df:1f:79:3a:ae:13:c0:4e:
         81:9d:58:a2
-----BEGIN CERTIFICATE-----
MIID+jCCAuKgAwIBAgIBATANBgkqhkiG9w0BAQUFADBIMQswCQYDVQQGEwJIbjEU
MBIGA1UECgwLVW5pdGVjIFJvb3QxDzANBgNVBAsMBlVuaXRlYzESMBAGA1UEAwwJ
VW5pdGVjIENBMB4XDTIwMDEwMzA2MjQyMFoXDTI1MDEwMjA2MjQyMFowUzELMAkG
A1UEBhMCSG4xFDASBgNVBAoMC1VuaXRlYyBSb290MRowGAYDVQQLDBFFc3R1ZGlh
bnRlIFVuaXRlYzESMBAGA1UEAwwJTWF4IEx1amFuMIIBIjANBgkqhkiG9w0BAQEF
AAOCAQ8AMIIBCgKCAQEAtfgV8jPTWDE2Ci3+kdZmbhPYzgy1PwzDFGdcbZYDqK4d
Z+UeffdrvkdHJiNg4NTO5RMrzuiglkUmTgK8caNqhXwAR0PDuoKrHlJN1mLte36b
NTAnwB7NZs5C+qVKwL+s33MjY6IaBCYVj+0AFNU5Lj8G2oVJRU0X6z5poRPnEIdf
8s+JOHuLt8+ESYgU87OQC7gt8IJ/thQpnUF7K+rC46e3/9qs4INFW/z1DSzw82pW
9AJLRm8F62pwrD7Ns91JwEwKHnNI1FiD2m+yij8SN75h6JO6DbwzAiobemfWm3oL
+770+PyltG1XzWYKO3tS4Leau0CKD8TTaGfYYFvRWQIDAQABo4HjMIHgMA4GA1Ud
DwEB/wQEAwIHgDAJBgNVHRMEAjAAMBYGA1UdJQEB/wQMMAoGCCsGAQUFBwMDMB0G
A1UdDgQWBBT2/Xgouvtc4KUfSDP5ctjRWV98AjAfBgNVHSMEGDAWgBRqcikNrbV8
PiyZw48bVNCV6oWqbzA6BggrBgEFBQcBAQQuMCwwKgYIKwYBBQUHMAKGHmh0dHA6
Ly91bnRlYy5lZHUvdW5pdGVjLWNhLmNlcjAvBgNVHR8EKDAmMCSgIqAghh5odHRw
Oi8vdW50ZWMuZWR1L3VuaXRlYy1jYS5jcmwwDQYJKoZIhvcNAQEFBQADggEBAAkX
gtzfKy7Me6YpTN6uEfkYz16tkZZMxZWMW9S6aHJhVx6H/1CyScYZHzY4MZYpTRip
TYbXnh+fV8CPT2zGCmA6w7To63kWZqU71mSZ98gw84hLOa56uOt5Cb3Upl9zJZyp
yEStPcECHyNX8ZXyPL3379DheVGA7ZDkqqFT2Rqtdn/8rIIvtT2XwKHJhNdogfrJ
0fLUNapRrGoEfJuT6Zf6EjYSJ9tgqzlB2osK4QNHAq/WxAON4X12rBxYJLoQged2
COf/lzpGIOIlcuR/W6rxXdWe6cGJO8syZx8ZtLV6eb7QfWcZ3m0bBvAsAQp4f+b7
AdTfH3k6rhPAToGdWKI=
-----END CERTIFICATE-----
