Certificate:
    Data:
        Version: 3 (0x2)
        Serial Number: 3 (0x3)
    Signature Algorithm: sha1WithRSAEncryption
        Issuer: C=Hn, O=Unitec Root, OU=Innovatec, CN=Innovatec CA
        Validity
            Not Before: Jan  3 06:56:48 2020 GMT
            Not After : Jan  2 06:56:48 2022 GMT
        Subject: C=Hn, O=Unitec Root, OU=Innovatec CA, CN=www.innovatec.hn
        Subject Public Key Info:
            Public Key Algorithm: rsaEncryption
                Public-Key: (2048 bit)
                Modulus:
                    00:df:71:50:3b:33:e3:5a:d9:76:a3:36:20:06:f4:
                    d5:d7:a1:9f:8c:89:80:87:b5:4d:38:d5:fa:78:81:
                    bf:ac:f7:64:9c:e8:44:85:65:8c:06:11:3d:1f:e7:
                    3d:01:cb:b8:7f:85:0d:b3:93:5b:5e:3f:34:f6:95:
                    40:bb:fd:48:8b:42:93:58:ba:4b:8d:fa:8a:da:b7:
                    f2:80:f0:58:af:dd:63:d7:a2:fd:17:24:47:fa:47:
                    c7:7b:f8:80:68:06:e5:81:22:82:f8:86:a6:78:2b:
                    a8:9a:0e:ea:11:9d:f5:05:09:d2:40:c6:9e:14:29:
                    57:0b:9d:75:25:7f:b1:6a:6d:ba:d7:6e:70:2d:aa:
                    a8:44:01:9a:89:1c:3c:37:6f:60:7e:97:9f:5a:47:
                    59:97:14:08:b8:21:c1:b4:3b:6d:17:26:44:40:9d:
                    a7:5c:52:ca:d1:ba:50:79:7b:bc:0b:27:3d:f1:ad:
                    ca:47:be:86:40:0c:f3:8d:12:c9:21:5c:f0:34:e7:
                    4a:65:7c:14:62:41:f2:a5:8a:f7:fa:3c:b5:82:47:
                    62:f3:32:32:4e:e8:62:ef:fb:b5:29:8a:a4:d4:2f:
                    86:2d:74:9a:fe:dd:46:b8:96:ff:c0:d1:04:ee:aa:
                    40:52:91:75:82:ea:3e:bc:de:ce:fe:00:f2:6d:c4:
                    15:2b
                Exponent: 65537 (0x10001)
        X509v3 extensions:
            X509v3 Key Usage: critical
                Digital Signature, Key Encipherment
            X509v3 Basic Constraints: 
                CA:FALSE
            X509v3 Extended Key Usage: 
                TLS Web Server Authentication, TLS Web Client Authentication
            X509v3 Subject Key Identifier: 
                A5:6C:A1:69:18:6C:0B:94:0B:A3:1B:CE:AA:D6:2E:3F:93:F9:DC:16
            X509v3 Authority Key Identifier: 
                keyid:5E:28:8E:C1:AE:2F:13:71:21:7A:94:36:F9:53:B8:85:83:A1:9D:FF

            Authority Information Access: 
                CA Issuers - URI:http://innovatec.com/innovatec-ca.cer

            X509v3 CRL Distribution Points: 

                Full Name:
                  URI:http://innovatec.com/innovatec-ca.crl

            X509v3 Subject Alternative Name: 
                DNS:yourdomain.tld
    Signature Algorithm: sha1WithRSAEncryption
         05:a1:3e:76:36:a2:9a:ff:40:5f:eb:7e:f6:f4:a9:0b:fb:92:
         48:39:c3:be:28:1f:1b:cf:3b:ed:c1:26:d1:a4:e0:9e:8b:90:
         ea:b8:3e:96:9b:ca:d4:cf:89:11:3a:cb:fd:39:c2:1d:10:f3:
         9b:3a:db:0e:00:0b:b3:d3:54:cd:ee:cf:ab:3c:f6:5c:be:9a:
         cc:c5:9a:03:93:31:bf:08:27:6e:d3:99:6a:fe:65:d1:2d:f8:
         02:5b:5b:7d:7c:1c:68:71:e5:99:2b:39:ca:94:00:47:a9:6c:
         ed:3d:5b:66:8a:fd:88:9e:af:06:9d:d8:00:cd:0b:f6:99:12:
         dc:97:95:9e:70:2c:fc:d1:a9:40:5a:2d:e9:7c:06:90:9e:29:
         1d:f0:a6:58:9e:e3:54:32:6c:45:c1:03:e3:36:3a:e1:0d:28:
         44:43:0b:23:16:49:b6:52:34:13:cd:11:f5:41:8c:c3:02:70:
         da:a4:d8:c2:91:55:40:d0:e2:fd:10:13:03:b1:83:8e:bd:92:
         69:56:d7:9b:fd:e6:f3:56:66:e5:0f:48:6b:49:77:66:8b:c7:
         9d:3d:6f:04:d1:df:68:8e:77:1e:09:62:19:6e:46:d1:70:68:
         a0:b7:95:73:58:e9:74:59:cd:0d:5c:ad:76:ea:61:55:5f:45:
         5b:38:6a:4d
-----BEGIN CERTIFICATE-----
MIIENDCCAxygAwIBAgIBAzANBgkqhkiG9w0BAQUFADBOMQswCQYDVQQGEwJIbjEU
MBIGA1UECgwLVW5pdGVjIFJvb3QxEjAQBgNVBAsMCUlubm92YXRlYzEVMBMGA1UE
AwwMSW5ub3ZhdGVjIENBMB4XDTIwMDEwMzA2NTY0OFoXDTIyMDEwMjA2NTY0OFow
VTELMAkGA1UEBhMCSG4xFDASBgNVBAoMC1VuaXRlYyBSb290MRUwEwYDVQQLDAxJ
bm5vdmF0ZWMgQ0ExGTAXBgNVBAMMEHd3dy5pbm5vdmF0ZWMuaG4wggEiMA0GCSqG
SIb3DQEBAQUAA4IBDwAwggEKAoIBAQDfcVA7M+Na2XajNiAG9NXXoZ+MiYCHtU04
1fp4gb+s92Sc6ESFZYwGET0f5z0By7h/hQ2zk1tePzT2lUC7/UiLQpNYukuN+ora
t/KA8Fiv3WPXov0XJEf6R8d7+IBoBuWBIoL4hqZ4K6iaDuoRnfUFCdJAxp4UKVcL
nXUlf7FqbbrXbnAtqqhEAZqJHDw3b2B+l59aR1mXFAi4IcG0O20XJkRAnadcUsrR
ulB5e7wLJz3xrcpHvoZADPONEskhXPA050plfBRiQfKlivf6PLWCR2LzMjJO6GLv
+7UpiqTUL4YtdJr+3Ua4lv/A0QTuqkBSkXWC6j683s7+APJtxBUrAgMBAAGjggEU
MIIBEDAOBgNVHQ8BAf8EBAMCBaAwCQYDVR0TBAIwADAdBgNVHSUEFjAUBggrBgEF
BQcDAQYIKwYBBQUHAwIwHQYDVR0OBBYEFKVsoWkYbAuUC6MbzqrWLj+T+dwWMB8G
A1UdIwQYMBaAFF4ojsGuLxNxIXqUNvlTuIWDoZ3/MEEGCCsGAQUFBwEBBDUwMzAx
BggrBgEFBQcwAoYlaHR0cDovL2lubm92YXRlYy5jb20vaW5ub3ZhdGVjLWNhLmNl
cjA2BgNVHR8ELzAtMCugKaAnhiVodHRwOi8vaW5ub3ZhdGVjLmNvbS9pbm5vdmF0
ZWMtY2EuY3JsMBkGA1UdEQQSMBCCDnlvdXJkb21haW4udGxkMA0GCSqGSIb3DQEB
BQUAA4IBAQAFoT52NqKa/0Bf63729KkL+5JIOcO+KB8bzzvtwSbRpOCei5DquD6W
m8rUz4kROsv9OcIdEPObOtsOAAuz01TN7s+rPPZcvprMxZoDkzG/CCdu05lq/mXR
LfgCW1t9fBxoceWZKznKlABHqWztPVtmiv2Inq8GndgAzQv2mRLcl5WecCz80alA
Wi3pfAaQnikd8KZYnuNUMmxFwQPjNjrhDShEQwsjFkm2UjQTzRH1QYzDAnDapNjC
kVVA0OL9EBMDsYOOvZJpVteb/ebzVmblD0hrSXdmi8edPW8E0d9ojnceCWIZbkbR
cGigt5VzWOl0Wc0NXK126mFVX0VbOGpN
-----END CERTIFICATE-----
