Certificate:
    Data:
        Version: 3 (0x2)
        Serial Number: 2 (0x2)
    Signature Algorithm: sha1WithRSAEncryption
        Issuer: C=Hn, O=Unitec Root, OU=Unitec Autoridad Certificadora, CN=Unitec CA
        Validity
            Not Before: Jan  3 05:57:08 2020 GMT
            Not After : Jan  2 05:57:08 2030 GMT
        Subject: C=Hn, O=Unitec Root, OU=Ceutec, CN=Ceutec CA
        Subject Public Key Info:
            Public Key Algorithm: rsaEncryption
                Public-Key: (2048 bit)
                Modulus:
                    00:de:70:13:f0:73:57:af:ab:0f:d2:8c:8a:3f:35:
                    54:15:6a:4e:6e:5d:d0:ef:a2:b4:6a:55:9b:52:93:
                    06:74:c7:60:8f:94:18:8c:7f:aa:db:7d:31:96:2a:
                    5f:e0:c1:74:48:8c:16:a1:ed:9b:f9:bf:93:eb:95:
                    a4:af:90:71:49:e7:77:cb:6b:db:d8:d4:8e:5e:2f:
                    c0:0d:f4:2a:4e:b5:f3:07:77:0b:6a:0f:72:c2:c7:
                    28:34:f6:e6:9c:5c:c0:90:70:18:ea:38:12:98:82:
                    d0:50:a8:39:97:b3:2a:49:0a:11:47:24:fd:55:65:
                    26:2f:21:54:6c:18:1b:04:b9:44:d2:cc:49:5d:44:
                    01:0e:e1:57:c7:9f:b8:1c:5f:ff:29:62:1a:e0:49:
                    df:d7:98:8e:c7:c9:59:d9:33:36:17:2a:e3:09:13:
                    d4:f0:bf:72:d3:2b:ff:86:75:f3:de:ac:43:cd:db:
                    9e:cf:47:5b:3f:33:53:db:ab:33:6f:13:c2:b2:4e:
                    ae:33:03:5e:6e:48:da:3a:2d:19:40:de:11:67:2e:
                    c5:aa:8e:1e:0c:fa:7a:58:d7:74:e2:01:00:1f:3d:
                    99:d4:2a:e1:bb:68:c2:fb:29:1f:12:b0:c0:f6:79:
                    8a:ac:3f:1d:d2:2b:eb:4f:eb:b7:d0:8d:4b:1f:f0:
                    be:23
                Exponent: 65537 (0x10001)
        X509v3 extensions:
            X509v3 Key Usage: critical
                Certificate Sign, CRL Sign
            X509v3 Basic Constraints: critical
                CA:TRUE, pathlen:0
            X509v3 Subject Key Identifier: 
                2D:3D:48:32:1B:DF:99:49:B7:2A:C1:F4:CA:4D:F4:3D:4F:22:B8:44
            X509v3 Authority Key Identifier: 
                keyid:41:30:13:29:6C:6A:1E:FC:DB:4A:9F:DC:C4:4D:49:AB:E7:EF:7B:B4

            Authority Information Access: 
                CA Issuers - URI:http://green.no/ca/root-ca.cer

            X509v3 CRL Distribution Points: 

                Full Name:
                  URI:http://green.no/ca/root-ca.crl

    Signature Algorithm: sha1WithRSAEncryption
         9f:ea:ec:ea:43:4b:f8:e1:26:8b:88:af:29:d5:c2:fe:d8:4c:
         68:f5:e9:3e:35:a6:b7:91:cd:72:21:fc:f9:5e:ee:6f:1f:6d:
         98:ac:b0:87:4b:a4:44:b6:49:09:1d:56:5e:21:7f:16:46:81:
         97:93:32:2a:8e:3b:2d:02:82:37:2d:b1:32:bf:f0:72:40:85:
         d4:b5:b1:cb:05:25:71:f3:43:9e:43:83:7b:be:4e:fe:71:f1:
         e4:16:0e:b7:e5:58:21:12:24:12:44:31:4e:94:79:70:a3:a4:
         0a:99:da:61:85:42:7b:20:33:89:30:fd:80:29:bc:e9:94:84:
         c2:90:05:07:38:60:af:8b:11:26:fc:0c:ca:11:87:76:b6:91:
         4d:ac:ed:ac:9c:d4:c6:e4:d0:42:9b:04:13:53:3c:2e:f7:b7:
         fa:92:4a:ca:18:c5:4e:09:11:bc:c2:5a:53:ef:ad:87:89:6e:
         da:4c:a0:56:18:66:ba:07:50:c6:23:fe:ae:2f:71:58:0c:fa:
         fc:63:b1:6f:71:47:77:9b:82:d3:78:77:b1:e5:64:43:56:ad:
         22:52:9b:79:bd:99:83:74:6c:4b:10:7c:de:b7:35:62:cb:d7:
         0f:a1:69:d9:fe:fa:33:d0:d4:57:d4:c3:b5:a0:8c:10:d3:7e:
         49:ab:82:9a
-----BEGIN CERTIFICATE-----
MIID+DCCAuCgAwIBAgIBAjANBgkqhkiG9w0BAQUFADBgMQswCQYDVQQGEwJIbjEU
MBIGA1UECgwLVW5pdGVjIFJvb3QxJzAlBgNVBAsMHlVuaXRlYyBBdXRvcmlkYWQg
Q2VydGlmaWNhZG9yYTESMBAGA1UEAwwJVW5pdGVjIENBMB4XDTIwMDEwMzA1NTcw
OFoXDTMwMDEwMjA1NTcwOFowSDELMAkGA1UEBhMCSG4xFDASBgNVBAoMC1VuaXRl
YyBSb290MQ8wDQYDVQQLDAZDZXV0ZWMxEjAQBgNVBAMMCUNldXRlYyBDQTCCASIw
DQYJKoZIhvcNAQEBBQADggEPADCCAQoCggEBAN5wE/BzV6+rD9KMij81VBVqTm5d
0O+itGpVm1KTBnTHYI+UGIx/qtt9MZYqX+DBdEiMFqHtm/m/k+uVpK+QcUnnd8tr
29jUjl4vwA30Kk618wd3C2oPcsLHKDT25pxcwJBwGOo4EpiC0FCoOZezKkkKEUck
/VVlJi8hVGwYGwS5RNLMSV1EAQ7hV8efuBxf/yliGuBJ39eYjsfJWdkzNhcq4wkT
1PC/ctMr/4Z1896sQ83bns9HWz8zU9urM28TwrJOrjMDXm5I2jotGUDeEWcuxaqO
Hgz6eljXdOIBAB89mdQq4btowvspHxKwwPZ5iqw/HdIr60/rt9CNSx/wviMCAwEA
AaOB1DCB0TAOBgNVHQ8BAf8EBAMCAQYwEgYDVR0TAQH/BAgwBgEB/wIBADAdBgNV
HQ4EFgQULT1IMhvfmUm3KsH0yk30PU8iuEQwHwYDVR0jBBgwFoAUQTATKWxqHvzb
Sp/cxE1Jq+fve7QwOgYIKwYBBQUHAQEELjAsMCoGCCsGAQUFBzAChh5odHRwOi8v
Z3JlZW4ubm8vY2Evcm9vdC1jYS5jZXIwLwYDVR0fBCgwJjAkoCKgIIYeaHR0cDov
L2dyZWVuLm5vL2NhL3Jvb3QtY2EuY3JsMA0GCSqGSIb3DQEBBQUAA4IBAQCf6uzq
Q0v44SaLiK8p1cL+2Exo9ek+Naa3kc1yIfz5Xu5vH22YrLCHS6REtkkJHVZeIX8W
RoGXkzIqjjstAoI3LbEyv/ByQIXUtbHLBSVx80OeQ4N7vk7+cfHkFg635VghEiQS
RDFOlHlwo6QKmdphhUJ7IDOJMP2AKbzplITCkAUHOGCvixEm/AzKEYd2tpFNrO2s
nNTG5NBCmwQTUzwu97f6kkrKGMVOCRG8wlpT762HiW7aTKBWGGa6B1DGI/6uL3FY
DPr8Y7FvcUd3m4LTeHex5WRDVq0iUpt5vZmDdGxLEHzetzViy9cPoWnZ/voz0NRX
1MO1oIwQ035Jq4Ka
-----END CERTIFICATE-----
