Certificate:
    Data:
        Version: 3 (0x2)
        Serial Number: 2 (0x2)
    Signature Algorithm: sha1WithRSAEncryption
        Issuer: C=Hn, O=Unitec Root, OU=Unitec Autoridad Certificadora, CN=Unitec CA
        Validity
            Not Before: Jan  3 05:57:08 2020 GMT
            Not After : Jan  2 05:57:08 2030 GMT
        Subject: C=Hn, O=Unitec Root, OU=Ceutec, CN=Ceutec CA
        Subject Public Key Info:
            Public Key Algorithm: rsaEncryption
                Public-Key: (2048 bit)
                Modulus:
                    00:de:70:13:f0:73:57:af:ab:0f:d2:8c:8a:3f:35:
                    54:15:6a:4e:6e:5d:d0:ef:a2:b4:6a:55:9b:52:93:
                    06:74:c7:60:8f:94:18:8c:7f:aa:db:7d:31:96:2a:
                    5f:e0:c1:74:48:8c:16:a1:ed:9b:f9:bf:93:eb:95:
                    a4:af:90:71:49:e7:77:cb:6b:db:d8:d4:8e:5e:2f:
                    c0:0d:f4:2a:4e:b5:f3:07:77:0b:6a:0f:72:c2:c7:
                    28:34:f6:e6:9c:5c:c0:90:70:18:ea:38:12:98:82:
                    d0:50:a8:39:97:b3:2a:49:0a:11:47:24:fd:55:65:
                    26:2f:21:54:6c:18:1b:04:b9:44:d2:cc:49:5d:44:
                    01:0e:e1:57:c7:9f:b8:1c:5f:ff:29:62:1a:e0:49:
                    df:d7:98:8e:c7:c9:59:d9:33:36:17:2a:e3:09:13:
                    d4:f0:bf:72:d3:2b:ff:86:75:f3:de:ac:43:cd:db:
                    9e:cf:47:5b:3f:33:53:db:ab:33:6f:13:c2:b2:4e:
                    ae:33:03:5e:6e:48:da:3a:2d:19:40:de:11:67:2e:
                    c5:aa:8e:1e:0c:fa:7a:58:d7:74:e2:01:00:1f:3d:
                    99:d4:2a:e1:bb:68:c2:fb:29:1f:12:b0:c0:f6:79:
                    8a:ac:3f:1d:d2:2b:eb:4f:eb:b7:d0:8d:4b:1f:f0:
                    be:23
                Exponent: 65537 (0x10001)
        X509v3 extensions:
            X509v3 Key Usage: critical
                Certificate Sign, CRL Sign
            X509v3 Basic Constraints: critical
                CA:TRUE, pathlen:0
            X509v3 Subject Key Identifier: 
                2D:3D:48:32:1B:DF:99:49:B7:2A:C1:F4:CA:4D:F4:3D:4F:22:B8:44
            X509v3 Authority Key Identifier: 
                keyid:41:30:13:29:6C:6A:1E:FC:DB:4A:9F:DC:C4:4D:49:AB:E7:EF:7B:B4

            Authority Information Access: 
                CA Issuers - URI:http://green.no/ca/root-ca.cer

            X509v3 CRL Distribution Points: 

                Full Name:
                  URI:http://green.no/ca/root-ca.crl

    Signature Algorithm: sha1WithRSAEncryption
         9f:ea:ec:ea:43:4b:f8:e1:26:8b:88:af:29:d5:c2:fe:d8:4c:
         68:f5:e9:3e:35:a6:b7:91:cd:72:21:fc:f9:5e:ee:6f:1f:6d:
         98:ac:b0:87:4b:a4:44:b6:49:09:1d:56:5e:21:7f:16:46:81:
         97:93:32:2a:8e:3b:2d:02:82:37:2d:b1:32:bf:f0:72:40:85:
         d4:b5:b1:cb:05:25:71:f3:43:9e:43:83:7b:be:4e:fe:71:f1:
         e4:16:0e:b7:e5:58:21:12:24:12:44:31:4e:94:79:70:a3:a4:
         0a:99:da:61:85:42:7b:20:33:89:30:fd:80:29:bc:e9:94:84:
         c2:90:05:07:38:60:af:8b:11:26:fc:0c:ca:11:87:76:b6:91:
         4d:ac:ed:ac:9c:d4:c6:e4:d0:42:9b:04:13:53:3c:2e:f7:b7:
         fa:92:4a:ca:18:c5:4e:09:11:bc:c2:5a:53:ef:ad:87:89:6e:
         da:4c:a0:56:18:66:ba:07:50:c6:23:fe:ae:2f:71:58:0c:fa:
         fc:63:b1:6f:71:47:77:9b:82:d3:78:77:b1:e5:64:43:56:ad:
         22:52:9b:79:bd:99:83:74:6c:4b:10:7c:de:b7:35:62:cb:d7:
         0f:a1:69:d9:fe:fa:33:d0:d4:57:d4:c3:b5:a0:8c:10:d3:7e:
         49:ab:82:9a
-----BEGIN CERTIFICATE-----
MIID+DCCAuCgAwIBAgIBAjANBgkqhkiG9w0BAQUFADBgMQswCQYDVQQGEwJIbjEU
MBIGA1UECgwLVW5pdGVjIFJvb3QxJzAlBgNVBAsMHlVuaXRlYyBBdXRvcmlkYWQg
Q2VydGlmaWNhZG9yYTESMBAGA1UEAwwJVW5pdGVjIENBMB4XDTIwMDEwMzA1NTcw
OFoXDTMwMDEwMjA1NTcwOFowSDELMAkGA1UEBhMCSG4xFDASBgNVBAoMC1VuaXRl
YyBSb290MQ8wDQYDVQQLDAZDZXV0ZWMxEjAQBgNVBAMMCUNldXRlYyBDQTCCASIw
DQYJKoZIhvcNAQEBBQADggEPADCCAQoCggEBAN5wE/BzV6+rD9KMij81VBVqTm5d
0O+itGpVm1KTBnTHYI+UGIx/qtt9MZYqX+DBdEiMFqHtm/m/k+uVpK+QcUnnd8tr
29jUjl4vwA30Kk618wd3C2oPcsLHKDT25pxcwJBwGOo4EpiC0FCoOZezKkkKEUck
/VVlJi8hVGwYGwS5RNLMSV1EAQ7hV8efuBxf/yliGuBJ39eYjsfJWdkzNhcq4wkT
1PC/ctMr/4Z1896sQ83bns9HWz8zU9urM28TwrJOrjMDXm5I2jotGUDeEWcuxaqO
Hgz6eljXdOIBAB89mdQq4btowvspHxKwwPZ5iqw/HdIr60/rt9CNSx/wviMCAwEA
AaOB1DCB0TAOBgNVHQ8BAf8EBAMCAQYwEgYDVR0TAQH/BAgwBgEB/wIBADAdBgNV
HQ4EFgQULT1IMhvfmUm3KsH0yk30PU8iuEQwHwYDVR0jBBgwFoAUQTATKWxqHvzb
Sp/cxE1Jq+fve7QwOgYIKwYBBQUHAQEELjAsMCoGCCsGAQUFBzAChh5odHRwOi8v
Z3JlZW4ubm8vY2Evcm9vdC1jYS5jZXIwLwYDVR0fBCgwJjAkoCKgIIYeaHR0cDov
L2dyZWVuLm5vL2NhL3Jvb3QtY2EuY3JsMA0GCSqGSIb3DQEBBQUAA4IBAQCf6uzq
Q0v44SaLiK8p1cL+2Exo9ek+Naa3kc1yIfz5Xu5vH22YrLCHS6REtkkJHVZeIX8W
RoGXkzIqjjstAoI3LbEyv/ByQIXUtbHLBSVx80OeQ4N7vk7+cfHkFg635VghEiQS
RDFOlHlwo6QKmdphhUJ7IDOJMP2AKbzplITCkAUHOGCvixEm/AzKEYd2tpFNrO2s
nNTG5NBCmwQTUzwu97f6kkrKGMVOCRG8wlpT762HiW7aTKBWGGa6B1DGI/6uL3FY
DPr8Y7FvcUd3m4LTeHex5WRDVq0iUpt5vZmDdGxLEHzetzViy9cPoWnZ/voz0NRX
1MO1oIwQ035Jq4Ka
-----END CERTIFICATE-----
Certificate:
    Data:
        Version: 3 (0x2)
        Serial Number: 1 (0x1)
    Signature Algorithm: sha1WithRSAEncryption
        Issuer: C=Hn, O=Unitec Root, OU=Unitec Autoridad Certificadora, CN=Unitec CA
        Validity
            Not Before: Jan  3 05:56:18 2020 GMT
            Not After : Dec 31 23:59:59 2030 GMT
        Subject: C=Hn, O=Unitec Root, OU=Unitec Autoridad Certificadora, CN=Unitec CA
        Subject Public Key Info:
            Public Key Algorithm: rsaEncryption
                Public-Key: (2048 bit)
                Modulus:
                    00:bc:c9:22:69:a0:f4:cb:da:4c:08:1a:58:c9:28:
                    0d:d8:62:b7:1b:b3:81:86:81:d4:d8:ac:87:6f:e8:
                    f7:b3:e5:63:ac:df:c1:57:7b:99:9a:b9:71:33:8d:
                    2c:0c:e9:f1:1f:d7:ee:b0:35:44:93:cd:10:68:d6:
                    5f:88:8e:ad:47:7e:51:6a:3c:65:42:3b:37:44:63:
                    75:38:f7:0c:e7:0f:42:a9:da:5a:86:03:57:43:14:
                    fb:3d:9d:71:f9:8b:3e:30:4f:06:c0:d9:e2:85:c0:
                    cf:95:75:e0:b0:1d:1c:db:d9:73:38:4d:ce:35:fe:
                    ac:f1:38:4d:75:df:f8:17:e0:d3:1a:82:32:59:e4:
                    e7:9f:d1:c1:e5:80:53:d7:b4:50:0f:14:9b:7d:e5:
                    85:d6:24:92:b5:db:23:fe:75:cb:d4:7b:25:6d:60:
                    5a:c4:ac:b0:c2:18:12:f1:3a:0e:8a:64:91:d3:02:
                    d7:3d:08:cd:78:d5:24:4e:25:95:95:d7:59:76:94:
                    e8:23:ea:bd:d3:9f:45:08:e3:87:44:44:b4:5a:5c:
                    14:01:a3:82:cd:8e:f9:4b:81:05:30:05:7a:cf:07:
                    38:b9:12:58:55:3d:da:07:01:db:35:55:32:07:a6:
                    0c:93:26:9a:b6:92:a7:d6:4a:21:11:cd:de:c2:a5:
                    2e:57
                Exponent: 65537 (0x10001)
        X509v3 extensions:
            X509v3 Key Usage: critical
                Certificate Sign, CRL Sign
            X509v3 Basic Constraints: critical
                CA:TRUE
            X509v3 Subject Key Identifier: 
                41:30:13:29:6C:6A:1E:FC:DB:4A:9F:DC:C4:4D:49:AB:E7:EF:7B:B4
            X509v3 Authority Key Identifier: 
                keyid:41:30:13:29:6C:6A:1E:FC:DB:4A:9F:DC:C4:4D:49:AB:E7:EF:7B:B4

    Signature Algorithm: sha1WithRSAEncryption
         56:56:db:33:55:56:45:47:7f:a1:a4:63:a2:b6:16:b5:b4:a0:
         09:ce:3a:28:3b:de:37:e7:99:05:d9:be:af:a0:b7:f2:bb:e9:
         d0:24:69:e5:16:0e:6c:48:6e:c6:37:37:5f:ab:e8:8e:8f:dc:
         8c:42:05:4d:ae:5a:51:aa:62:16:78:d8:49:df:83:4d:90:7d:
         1f:b5:ba:23:65:a3:3a:45:21:6b:3b:d1:5a:2d:51:74:bd:ef:
         fc:6e:db:31:d4:07:ba:2c:56:f6:b8:1d:22:b1:23:c9:94:46:
         bf:ef:62:02:42:5b:a9:6c:45:22:59:00:2c:8d:43:5d:fe:b3:
         a0:94:73:51:30:9e:3c:67:96:eb:08:85:af:e3:e3:99:0d:53:
         4e:32:c6:79:79:44:37:4d:d7:23:0b:4e:49:b7:96:fe:f9:54:
         7b:fd:0c:1e:c7:53:98:b5:5d:0b:2c:ca:f2:0a:49:ee:8c:14:
         0d:63:21:7c:79:2d:78:d4:26:62:56:e1:27:78:c8:cd:a1:68:
         e0:b0:ac:95:03:d4:cb:e9:ec:10:e5:0f:6b:e0:bf:51:3a:7a:
         24:78:91:e7:bb:74:d0:12:de:06:6d:de:6b:b3:7f:6a:5c:06:
         1b:75:b6:71:80:68:89:99:95:36:6e:b7:5a:d4:fc:9e:4d:2a:
         63:76:55:65
-----BEGIN CERTIFICATE-----
MIIDnjCCAoagAwIBAgIBATANBgkqhkiG9w0BAQUFADBgMQswCQYDVQQGEwJIbjEU
MBIGA1UECgwLVW5pdGVjIFJvb3QxJzAlBgNVBAsMHlVuaXRlYyBBdXRvcmlkYWQg
Q2VydGlmaWNhZG9yYTESMBAGA1UEAwwJVW5pdGVjIENBMB4XDTIwMDEwMzA1NTYx
OFoXDTMwMTIzMTIzNTk1OVowYDELMAkGA1UEBhMCSG4xFDASBgNVBAoMC1VuaXRl
YyBSb290MScwJQYDVQQLDB5Vbml0ZWMgQXV0b3JpZGFkIENlcnRpZmljYWRvcmEx
EjAQBgNVBAMMCVVuaXRlYyBDQTCCASIwDQYJKoZIhvcNAQEBBQADggEPADCCAQoC
ggEBALzJImmg9MvaTAgaWMkoDdhitxuzgYaB1Nish2/o97PlY6zfwVd7mZq5cTON
LAzp8R/X7rA1RJPNEGjWX4iOrUd+UWo8ZUI7N0RjdTj3DOcPQqnaWoYDV0MU+z2d
cfmLPjBPBsDZ4oXAz5V14LAdHNvZczhNzjX+rPE4TXXf+Bfg0xqCMlnk55/RweWA
U9e0UA8Um33lhdYkkrXbI/51y9R7JW1gWsSssMIYEvE6DopkkdMC1z0IzXjVJE4l
lZXXWXaU6CPqvdOfRQjjh0REtFpcFAGjgs2O+UuBBTAFes8HOLkSWFU92gcB2zVV
MgemDJMmmraSp9ZKIRHN3sKlLlcCAwEAAaNjMGEwDgYDVR0PAQH/BAQDAgEGMA8G
A1UdEwEB/wQFMAMBAf8wHQYDVR0OBBYEFEEwEylsah7820qf3MRNSavn73u0MB8G
A1UdIwQYMBaAFEEwEylsah7820qf3MRNSavn73u0MA0GCSqGSIb3DQEBBQUAA4IB
AQBWVtszVVZFR3+hpGOitha1tKAJzjooO94355kF2b6voLfyu+nQJGnlFg5sSG7G
Nzdfq+iOj9yMQgVNrlpRqmIWeNhJ34NNkH0ftbojZaM6RSFrO9FaLVF0ve/8btsx
1Ae6LFb2uB0isSPJlEa/72ICQlupbEUiWQAsjUNd/rOglHNRMJ48Z5brCIWv4+OZ
DVNOMsZ5eUQ3TdcjC05Jt5b++VR7/Qwex1OYtV0LLMryCknujBQNYyF8eS141CZi
VuEneMjNoWjgsKyVA9TL6ewQ5Q9r4L9ROnokeJHnu3TQEt4Gbd5rs39qXAYbdbZx
gGiJmZU2brda1PyeTSpjdlVl
-----END CERTIFICATE-----
