Certificate:
    Data:
        Version: 3 (0x2)
        Serial Number: 1 (0x1)
    Signature Algorithm: sha1WithRSAEncryption
        Issuer: C=Hn, O=Unitec Root, OU=Unitec Autoridad Certificadora, CN=Unitec CA
        Validity
            Not Before: Jan  3 05:56:18 2020 GMT
            Not After : Dec 31 23:59:59 2030 GMT
        Subject: C=Hn, O=Unitec Root, OU=Unitec Autoridad Certificadora, CN=Unitec CA
        Subject Public Key Info:
            Public Key Algorithm: rsaEncryption
                Public-Key: (2048 bit)
                Modulus:
                    00:bc:c9:22:69:a0:f4:cb:da:4c:08:1a:58:c9:28:
                    0d:d8:62:b7:1b:b3:81:86:81:d4:d8:ac:87:6f:e8:
                    f7:b3:e5:63:ac:df:c1:57:7b:99:9a:b9:71:33:8d:
                    2c:0c:e9:f1:1f:d7:ee:b0:35:44:93:cd:10:68:d6:
                    5f:88:8e:ad:47:7e:51:6a:3c:65:42:3b:37:44:63:
                    75:38:f7:0c:e7:0f:42:a9:da:5a:86:03:57:43:14:
                    fb:3d:9d:71:f9:8b:3e:30:4f:06:c0:d9:e2:85:c0:
                    cf:95:75:e0:b0:1d:1c:db:d9:73:38:4d:ce:35:fe:
                    ac:f1:38:4d:75:df:f8:17:e0:d3:1a:82:32:59:e4:
                    e7:9f:d1:c1:e5:80:53:d7:b4:50:0f:14:9b:7d:e5:
                    85:d6:24:92:b5:db:23:fe:75:cb:d4:7b:25:6d:60:
                    5a:c4:ac:b0:c2:18:12:f1:3a:0e:8a:64:91:d3:02:
                    d7:3d:08:cd:78:d5:24:4e:25:95:95:d7:59:76:94:
                    e8:23:ea:bd:d3:9f:45:08:e3:87:44:44:b4:5a:5c:
                    14:01:a3:82:cd:8e:f9:4b:81:05:30:05:7a:cf:07:
                    38:b9:12:58:55:3d:da:07:01:db:35:55:32:07:a6:
                    0c:93:26:9a:b6:92:a7:d6:4a:21:11:cd:de:c2:a5:
                    2e:57
                Exponent: 65537 (0x10001)
        X509v3 extensions:
            X509v3 Key Usage: critical
                Certificate Sign, CRL Sign
            X509v3 Basic Constraints: critical
                CA:TRUE
            X509v3 Subject Key Identifier: 
                41:30:13:29:6C:6A:1E:FC:DB:4A:9F:DC:C4:4D:49:AB:E7:EF:7B:B4
            X509v3 Authority Key Identifier: 
                keyid:41:30:13:29:6C:6A:1E:FC:DB:4A:9F:DC:C4:4D:49:AB:E7:EF:7B:B4

    Signature Algorithm: sha1WithRSAEncryption
         56:56:db:33:55:56:45:47:7f:a1:a4:63:a2:b6:16:b5:b4:a0:
         09:ce:3a:28:3b:de:37:e7:99:05:d9:be:af:a0:b7:f2:bb:e9:
         d0:24:69:e5:16:0e:6c:48:6e:c6:37:37:5f:ab:e8:8e:8f:dc:
         8c:42:05:4d:ae:5a:51:aa:62:16:78:d8:49:df:83:4d:90:7d:
         1f:b5:ba:23:65:a3:3a:45:21:6b:3b:d1:5a:2d:51:74:bd:ef:
         fc:6e:db:31:d4:07:ba:2c:56:f6:b8:1d:22:b1:23:c9:94:46:
         bf:ef:62:02:42:5b:a9:6c:45:22:59:00:2c:8d:43:5d:fe:b3:
         a0:94:73:51:30:9e:3c:67:96:eb:08:85:af:e3:e3:99:0d:53:
         4e:32:c6:79:79:44:37:4d:d7:23:0b:4e:49:b7:96:fe:f9:54:
         7b:fd:0c:1e:c7:53:98:b5:5d:0b:2c:ca:f2:0a:49:ee:8c:14:
         0d:63:21:7c:79:2d:78:d4:26:62:56:e1:27:78:c8:cd:a1:68:
         e0:b0:ac:95:03:d4:cb:e9:ec:10:e5:0f:6b:e0:bf:51:3a:7a:
         24:78:91:e7:bb:74:d0:12:de:06:6d:de:6b:b3:7f:6a:5c:06:
         1b:75:b6:71:80:68:89:99:95:36:6e:b7:5a:d4:fc:9e:4d:2a:
         63:76:55:65
-----BEGIN CERTIFICATE-----
MIIDnjCCAoagAwIBAgIBATANBgkqhkiG9w0BAQUFADBgMQswCQYDVQQGEwJIbjEU
MBIGA1UECgwLVW5pdGVjIFJvb3QxJzAlBgNVBAsMHlVuaXRlYyBBdXRvcmlkYWQg
Q2VydGlmaWNhZG9yYTESMBAGA1UEAwwJVW5pdGVjIENBMB4XDTIwMDEwMzA1NTYx
OFoXDTMwMTIzMTIzNTk1OVowYDELMAkGA1UEBhMCSG4xFDASBgNVBAoMC1VuaXRl
YyBSb290MScwJQYDVQQLDB5Vbml0ZWMgQXV0b3JpZGFkIENlcnRpZmljYWRvcmEx
EjAQBgNVBAMMCVVuaXRlYyBDQTCCASIwDQYJKoZIhvcNAQEBBQADggEPADCCAQoC
ggEBALzJImmg9MvaTAgaWMkoDdhitxuzgYaB1Nish2/o97PlY6zfwVd7mZq5cTON
LAzp8R/X7rA1RJPNEGjWX4iOrUd+UWo8ZUI7N0RjdTj3DOcPQqnaWoYDV0MU+z2d
cfmLPjBPBsDZ4oXAz5V14LAdHNvZczhNzjX+rPE4TXXf+Bfg0xqCMlnk55/RweWA
U9e0UA8Um33lhdYkkrXbI/51y9R7JW1gWsSssMIYEvE6DopkkdMC1z0IzXjVJE4l
lZXXWXaU6CPqvdOfRQjjh0REtFpcFAGjgs2O+UuBBTAFes8HOLkSWFU92gcB2zVV
MgemDJMmmraSp9ZKIRHN3sKlLlcCAwEAAaNjMGEwDgYDVR0PAQH/BAQDAgEGMA8G
A1UdEwEB/wQFMAMBAf8wHQYDVR0OBBYEFEEwEylsah7820qf3MRNSavn73u0MB8G
A1UdIwQYMBaAFEEwEylsah7820qf3MRNSavn73u0MA0GCSqGSIb3DQEBBQUAA4IB
AQBWVtszVVZFR3+hpGOitha1tKAJzjooO94355kF2b6voLfyu+nQJGnlFg5sSG7G
Nzdfq+iOj9yMQgVNrlpRqmIWeNhJ34NNkH0ftbojZaM6RSFrO9FaLVF0ve/8btsx
1Ae6LFb2uB0isSPJlEa/72ICQlupbEUiWQAsjUNd/rOglHNRMJ48Z5brCIWv4+OZ
DVNOMsZ5eUQ3TdcjC05Jt5b++VR7/Qwex1OYtV0LLMryCknujBQNYyF8eS141CZi
VuEneMjNoWjgsKyVA9TL6ewQ5Q9r4L9ROnokeJHnu3TQEt4Gbd5rs39qXAYbdbZx
gGiJmZU2brda1PyeTSpjdlVl
-----END CERTIFICATE-----
