Certificate:
    Data:
        Version: 3 (0x2)
        Serial Number: 4 (0x4)
    Signature Algorithm: sha1WithRSAEncryption
        Issuer: C=Hn, O=Unitec Root, OU=Unitec Autoridad Certificadora, CN=Unitec CA
        Validity
            Not Before: Jan  3 06:00:46 2020 GMT
            Not After : Jan  2 06:00:46 2030 GMT
        Subject: C=Hn, O=Unitec Root, OU=Unitec, CN=Unitec CA
        Subject Public Key Info:
            Public Key Algorithm: rsaEncryption
                Public-Key: (2048 bit)
                Modulus:
                    00:d0:20:5c:22:d3:cf:99:8e:ff:4c:90:b3:13:26:
                    56:dc:56:03:84:c1:f6:81:45:d0:09:c9:83:9d:b7:
                    e3:42:4f:a8:ca:cd:4c:6d:7e:42:05:1f:c6:1d:b6:
                    e6:ba:39:b5:ab:15:fd:71:7d:1d:e5:67:05:b5:ca:
                    4a:ed:d7:87:df:6b:71:04:22:64:5f:13:75:77:a9:
                    13:0e:3f:6b:b9:40:57:29:d2:32:b9:39:a5:8c:ab:
                    9d:8b:1a:f0:16:c9:a2:ac:0b:64:bf:43:be:94:86:
                    06:8c:00:0f:57:c8:ff:17:c9:de:35:11:dd:7a:22:
                    c4:4b:04:2c:ea:07:5b:2b:ef:f7:33:d8:4e:76:c2:
                    d9:5a:b2:54:1b:31:ea:9a:4c:5f:14:e1:0b:e2:77:
                    16:2c:9d:f6:ad:57:ca:cb:97:1e:1d:8c:81:9a:60:
                    78:b6:df:ee:89:67:86:30:f2:02:e9:cf:50:02:9e:
                    6b:5b:f4:7c:48:f9:cb:9f:7a:9a:e8:21:c7:9f:f0:
                    37:2a:28:56:9a:e9:e1:e2:2b:35:e0:c0:7a:eb:c0:
                    37:3b:7d:1c:ff:bf:86:43:97:0a:c8:ac:15:55:58:
                    31:38:d7:46:8b:4c:78:87:39:0b:cf:6b:99:a8:83:
                    53:02:24:13:38:6b:c0:d6:35:64:98:58:d6:47:53:
                    f7:0d
                Exponent: 65537 (0x10001)
        X509v3 extensions:
            X509v3 Key Usage: critical
                Certificate Sign, CRL Sign
            X509v3 Basic Constraints: critical
                CA:TRUE, pathlen:0
            X509v3 Subject Key Identifier: 
                6A:72:29:0D:AD:B5:7C:3E:2C:99:C3:8F:1B:54:D0:95:EA:85:AA:6F
            X509v3 Authority Key Identifier: 
                keyid:41:30:13:29:6C:6A:1E:FC:DB:4A:9F:DC:C4:4D:49:AB:E7:EF:7B:B4

            Authority Information Access: 
                CA Issuers - URI:http://green.no/ca/root-ca.cer

            X509v3 CRL Distribution Points: 

                Full Name:
                  URI:http://green.no/ca/root-ca.crl

    Signature Algorithm: sha1WithRSAEncryption
         82:01:b7:22:fc:67:82:40:12:06:0c:52:5d:cc:5a:36:0c:cd:
         15:69:ab:39:3c:b5:c7:dc:b9:95:55:b6:57:9a:e6:66:68:f8:
         9c:5b:f6:50:22:ec:7d:96:67:1a:99:ab:5b:fe:62:9b:74:bc:
         9c:de:f3:25:20:2e:9a:c0:78:43:4f:9a:87:ed:18:8e:10:7b:
         ff:55:1c:c2:3f:12:a6:b6:51:93:4c:20:06:2e:2a:d1:44:94:
         ab:cb:21:f6:dc:33:ee:56:e5:d1:6b:2c:b7:e8:94:63:22:f6:
         8a:91:01:ff:9c:ea:0d:de:75:07:62:59:bc:19:b0:43:ab:fe:
         5e:67:bd:87:57:66:31:6c:1f:95:59:40:6f:0f:1a:31:99:42:
         8f:b5:f2:9b:ed:08:b2:5c:92:1a:d5:d3:fa:17:90:0c:7b:f1:
         de:68:d1:c9:08:27:c5:08:6e:c2:db:92:d6:f8:c0:5a:71:dd:
         8f:31:0b:03:d3:0d:ce:47:0c:a6:14:22:9f:ff:e6:d3:ec:8f:
         ee:85:54:52:1d:0e:dd:3e:70:92:00:31:a8:fa:8a:a8:3b:1d:
         16:cc:f4:db:1d:48:06:9b:03:03:62:21:6c:c9:c3:14:7f:21:
         c6:52:6d:c1:df:fa:92:75:c9:2e:d4:9f:e8:72:db:c7:06:d2:
         06:5d:6f:62
-----BEGIN CERTIFICATE-----
MIID+DCCAuCgAwIBAgIBBDANBgkqhkiG9w0BAQUFADBgMQswCQYDVQQGEwJIbjEU
MBIGA1UECgwLVW5pdGVjIFJvb3QxJzAlBgNVBAsMHlVuaXRlYyBBdXRvcmlkYWQg
Q2VydGlmaWNhZG9yYTESMBAGA1UEAwwJVW5pdGVjIENBMB4XDTIwMDEwMzA2MDA0
NloXDTMwMDEwMjA2MDA0NlowSDELMAkGA1UEBhMCSG4xFDASBgNVBAoMC1VuaXRl
YyBSb290MQ8wDQYDVQQLDAZVbml0ZWMxEjAQBgNVBAMMCVVuaXRlYyBDQTCCASIw
DQYJKoZIhvcNAQEBBQADggEPADCCAQoCggEBANAgXCLTz5mO/0yQsxMmVtxWA4TB
9oFF0AnJg52340JPqMrNTG1+QgUfxh225ro5tasV/XF9HeVnBbXKSu3Xh99rcQQi
ZF8TdXepEw4/a7lAVynSMrk5pYyrnYsa8BbJoqwLZL9DvpSGBowAD1fI/xfJ3jUR
3XoixEsELOoHWyvv9zPYTnbC2VqyVBsx6ppMXxThC+J3Fiyd9q1XysuXHh2MgZpg
eLbf7olnhjDyAunPUAKea1v0fEj5y596mughx5/wNyooVprp4eIrNeDAeuvANzt9
HP+/hkOXCsisFVVYMTjXRotMeIc5C89rmaiDUwIkEzhrwNY1ZJhY1kdT9w0CAwEA
AaOB1DCB0TAOBgNVHQ8BAf8EBAMCAQYwEgYDVR0TAQH/BAgwBgEB/wIBADAdBgNV
HQ4EFgQUanIpDa21fD4smcOPG1TQleqFqm8wHwYDVR0jBBgwFoAUQTATKWxqHvzb
Sp/cxE1Jq+fve7QwOgYIKwYBBQUHAQEELjAsMCoGCCsGAQUFBzAChh5odHRwOi8v
Z3JlZW4ubm8vY2Evcm9vdC1jYS5jZXIwLwYDVR0fBCgwJjAkoCKgIIYeaHR0cDov
L2dyZWVuLm5vL2NhL3Jvb3QtY2EuY3JsMA0GCSqGSIb3DQEBBQUAA4IBAQCCAbci
/GeCQBIGDFJdzFo2DM0Vaas5PLXH3LmVVbZXmuZmaPicW/ZQIux9lmcamatb/mKb
dLyc3vMlIC6awHhDT5qH7RiOEHv/VRzCPxKmtlGTTCAGLirRRJSryyH23DPuVuXR
ayy36JRjIvaKkQH/nOoN3nUHYlm8GbBDq/5eZ72HV2YxbB+VWUBvDxoxmUKPtfKb
7QiyXJIa1dP6F5AMe/HeaNHJCCfFCG7C25LW+MBacd2PMQsD0w3ORwymFCKf/+bT
7I/uhVRSHQ7dPnCSADGo+oqoOx0WzPTbHUgGmwMDYiFsycMUfyHGUm3B3/qSdcku
1J/octvHBtIGXW9i
-----END CERTIFICATE-----
Certificate:
    Data:
        Version: 3 (0x2)
        Serial Number: 1 (0x1)
    Signature Algorithm: sha1WithRSAEncryption
        Issuer: C=Hn, O=Unitec Root, OU=Unitec Autoridad Certificadora, CN=Unitec CA
        Validity
            Not Before: Jan  3 05:56:18 2020 GMT
            Not After : Dec 31 23:59:59 2030 GMT
        Subject: C=Hn, O=Unitec Root, OU=Unitec Autoridad Certificadora, CN=Unitec CA
        Subject Public Key Info:
            Public Key Algorithm: rsaEncryption
                Public-Key: (2048 bit)
                Modulus:
                    00:bc:c9:22:69:a0:f4:cb:da:4c:08:1a:58:c9:28:
                    0d:d8:62:b7:1b:b3:81:86:81:d4:d8:ac:87:6f:e8:
                    f7:b3:e5:63:ac:df:c1:57:7b:99:9a:b9:71:33:8d:
                    2c:0c:e9:f1:1f:d7:ee:b0:35:44:93:cd:10:68:d6:
                    5f:88:8e:ad:47:7e:51:6a:3c:65:42:3b:37:44:63:
                    75:38:f7:0c:e7:0f:42:a9:da:5a:86:03:57:43:14:
                    fb:3d:9d:71:f9:8b:3e:30:4f:06:c0:d9:e2:85:c0:
                    cf:95:75:e0:b0:1d:1c:db:d9:73:38:4d:ce:35:fe:
                    ac:f1:38:4d:75:df:f8:17:e0:d3:1a:82:32:59:e4:
                    e7:9f:d1:c1:e5:80:53:d7:b4:50:0f:14:9b:7d:e5:
                    85:d6:24:92:b5:db:23:fe:75:cb:d4:7b:25:6d:60:
                    5a:c4:ac:b0:c2:18:12:f1:3a:0e:8a:64:91:d3:02:
                    d7:3d:08:cd:78:d5:24:4e:25:95:95:d7:59:76:94:
                    e8:23:ea:bd:d3:9f:45:08:e3:87:44:44:b4:5a:5c:
                    14:01:a3:82:cd:8e:f9:4b:81:05:30:05:7a:cf:07:
                    38:b9:12:58:55:3d:da:07:01:db:35:55:32:07:a6:
                    0c:93:26:9a:b6:92:a7:d6:4a:21:11:cd:de:c2:a5:
                    2e:57
                Exponent: 65537 (0x10001)
        X509v3 extensions:
            X509v3 Key Usage: critical
                Certificate Sign, CRL Sign
            X509v3 Basic Constraints: critical
                CA:TRUE
            X509v3 Subject Key Identifier: 
                41:30:13:29:6C:6A:1E:FC:DB:4A:9F:DC:C4:4D:49:AB:E7:EF:7B:B4
            X509v3 Authority Key Identifier: 
                keyid:41:30:13:29:6C:6A:1E:FC:DB:4A:9F:DC:C4:4D:49:AB:E7:EF:7B:B4

    Signature Algorithm: sha1WithRSAEncryption
         56:56:db:33:55:56:45:47:7f:a1:a4:63:a2:b6:16:b5:b4:a0:
         09:ce:3a:28:3b:de:37:e7:99:05:d9:be:af:a0:b7:f2:bb:e9:
         d0:24:69:e5:16:0e:6c:48:6e:c6:37:37:5f:ab:e8:8e:8f:dc:
         8c:42:05:4d:ae:5a:51:aa:62:16:78:d8:49:df:83:4d:90:7d:
         1f:b5:ba:23:65:a3:3a:45:21:6b:3b:d1:5a:2d:51:74:bd:ef:
         fc:6e:db:31:d4:07:ba:2c:56:f6:b8:1d:22:b1:23:c9:94:46:
         bf:ef:62:02:42:5b:a9:6c:45:22:59:00:2c:8d:43:5d:fe:b3:
         a0:94:73:51:30:9e:3c:67:96:eb:08:85:af:e3:e3:99:0d:53:
         4e:32:c6:79:79:44:37:4d:d7:23:0b:4e:49:b7:96:fe:f9:54:
         7b:fd:0c:1e:c7:53:98:b5:5d:0b:2c:ca:f2:0a:49:ee:8c:14:
         0d:63:21:7c:79:2d:78:d4:26:62:56:e1:27:78:c8:cd:a1:68:
         e0:b0:ac:95:03:d4:cb:e9:ec:10:e5:0f:6b:e0:bf:51:3a:7a:
         24:78:91:e7:bb:74:d0:12:de:06:6d:de:6b:b3:7f:6a:5c:06:
         1b:75:b6:71:80:68:89:99:95:36:6e:b7:5a:d4:fc:9e:4d:2a:
         63:76:55:65
-----BEGIN CERTIFICATE-----
MIIDnjCCAoagAwIBAgIBATANBgkqhkiG9w0BAQUFADBgMQswCQYDVQQGEwJIbjEU
MBIGA1UECgwLVW5pdGVjIFJvb3QxJzAlBgNVBAsMHlVuaXRlYyBBdXRvcmlkYWQg
Q2VydGlmaWNhZG9yYTESMBAGA1UEAwwJVW5pdGVjIENBMB4XDTIwMDEwMzA1NTYx
OFoXDTMwMTIzMTIzNTk1OVowYDELMAkGA1UEBhMCSG4xFDASBgNVBAoMC1VuaXRl
YyBSb290MScwJQYDVQQLDB5Vbml0ZWMgQXV0b3JpZGFkIENlcnRpZmljYWRvcmEx
EjAQBgNVBAMMCVVuaXRlYyBDQTCCASIwDQYJKoZIhvcNAQEBBQADggEPADCCAQoC
ggEBALzJImmg9MvaTAgaWMkoDdhitxuzgYaB1Nish2/o97PlY6zfwVd7mZq5cTON
LAzp8R/X7rA1RJPNEGjWX4iOrUd+UWo8ZUI7N0RjdTj3DOcPQqnaWoYDV0MU+z2d
cfmLPjBPBsDZ4oXAz5V14LAdHNvZczhNzjX+rPE4TXXf+Bfg0xqCMlnk55/RweWA
U9e0UA8Um33lhdYkkrXbI/51y9R7JW1gWsSssMIYEvE6DopkkdMC1z0IzXjVJE4l
lZXXWXaU6CPqvdOfRQjjh0REtFpcFAGjgs2O+UuBBTAFes8HOLkSWFU92gcB2zVV
MgemDJMmmraSp9ZKIRHN3sKlLlcCAwEAAaNjMGEwDgYDVR0PAQH/BAQDAgEGMA8G
A1UdEwEB/wQFMAMBAf8wHQYDVR0OBBYEFEEwEylsah7820qf3MRNSavn73u0MB8G
A1UdIwQYMBaAFEEwEylsah7820qf3MRNSavn73u0MA0GCSqGSIb3DQEBBQUAA4IB
AQBWVtszVVZFR3+hpGOitha1tKAJzjooO94355kF2b6voLfyu+nQJGnlFg5sSG7G
Nzdfq+iOj9yMQgVNrlpRqmIWeNhJ34NNkH0ftbojZaM6RSFrO9FaLVF0ve/8btsx
1Ae6LFb2uB0isSPJlEa/72ICQlupbEUiWQAsjUNd/rOglHNRMJ48Z5brCIWv4+OZ
DVNOMsZ5eUQ3TdcjC05Jt5b++VR7/Qwex1OYtV0LLMryCknujBQNYyF8eS141CZi
VuEneMjNoWjgsKyVA9TL6ewQ5Q9r4L9ROnokeJHnu3TQEt4Gbd5rs39qXAYbdbZx
gGiJmZU2brda1PyeTSpjdlVl
-----END CERTIFICATE-----
