Certificate:
    Data:
        Version: 3 (0x2)
        Serial Number: 1 (0x1)
    Signature Algorithm: sha1WithRSAEncryption
        Issuer: C=Hn, O=Unitec Root, OU=Innovatec, CN=Innovatec CA
        Validity
            Not Before: Jan  3 06:14:51 2020 GMT
            Not After : Jan  2 06:14:51 2022 GMT
        Subject: C=Hn, O=Unitec Root, OU=Innovatec CA, CN=www.innovatec.hn
        Subject Public Key Info:
            Public Key Algorithm: rsaEncryption
                Public-Key: (2048 bit)
                Modulus:
                    00:df:71:50:3b:33:e3:5a:d9:76:a3:36:20:06:f4:
                    d5:d7:a1:9f:8c:89:80:87:b5:4d:38:d5:fa:78:81:
                    bf:ac:f7:64:9c:e8:44:85:65:8c:06:11:3d:1f:e7:
                    3d:01:cb:b8:7f:85:0d:b3:93:5b:5e:3f:34:f6:95:
                    40:bb:fd:48:8b:42:93:58:ba:4b:8d:fa:8a:da:b7:
                    f2:80:f0:58:af:dd:63:d7:a2:fd:17:24:47:fa:47:
                    c7:7b:f8:80:68:06:e5:81:22:82:f8:86:a6:78:2b:
                    a8:9a:0e:ea:11:9d:f5:05:09:d2:40:c6:9e:14:29:
                    57:0b:9d:75:25:7f:b1:6a:6d:ba:d7:6e:70:2d:aa:
                    a8:44:01:9a:89:1c:3c:37:6f:60:7e:97:9f:5a:47:
                    59:97:14:08:b8:21:c1:b4:3b:6d:17:26:44:40:9d:
                    a7:5c:52:ca:d1:ba:50:79:7b:bc:0b:27:3d:f1:ad:
                    ca:47:be:86:40:0c:f3:8d:12:c9:21:5c:f0:34:e7:
                    4a:65:7c:14:62:41:f2:a5:8a:f7:fa:3c:b5:82:47:
                    62:f3:32:32:4e:e8:62:ef:fb:b5:29:8a:a4:d4:2f:
                    86:2d:74:9a:fe:dd:46:b8:96:ff:c0:d1:04:ee:aa:
                    40:52:91:75:82:ea:3e:bc:de:ce:fe:00:f2:6d:c4:
                    15:2b
                Exponent: 65537 (0x10001)
        X509v3 extensions:
            X509v3 Key Usage: critical
                Digital Signature
            X509v3 Basic Constraints: 
                CA:FALSE
            X509v3 Extended Key Usage: 
                TLS Web Client Authentication
            X509v3 Subject Key Identifier: 
                A5:6C:A1:69:18:6C:0B:94:0B:A3:1B:CE:AA:D6:2E:3F:93:F9:DC:16
            X509v3 Authority Key Identifier: 
                keyid:5E:28:8E:C1:AE:2F:13:71:21:7A:94:36:F9:53:B8:85:83:A1:9D:FF

            Authority Information Access: 
                CA Issuers - URI:http://innovatec.com/innovatec-ca.cer

            X509v3 CRL Distribution Points: 

                Full Name:
                  URI:http://innovatec.com/innovatec-ca.crl

            X509v3 Subject Alternative Name: 
                DNS:yourdomain.tld
    Signature Algorithm: sha1WithRSAEncryption
         3a:52:a5:a9:cd:3a:f2:61:4c:f2:f1:4c:a9:7a:67:01:38:e4:
         bf:21:68:59:5f:a7:ab:74:d4:38:87:2c:91:13:37:10:c4:d3:
         9e:d0:c2:38:7d:74:4c:56:54:34:61:b6:8a:19:d0:e2:8d:91:
         1d:b6:a7:d7:df:b6:1d:49:3a:22:b8:0d:77:6c:4d:3f:93:0c:
         c5:ca:f6:99:42:5c:e0:b5:43:a6:04:5d:b6:d8:e3:43:20:ca:
         f7:a4:71:1b:4f:0a:99:23:fc:7c:da:d4:1c:a9:b6:2e:af:8a:
         24:76:48:53:1e:a2:2e:c2:ad:83:9e:e2:9e:e5:65:d1:f7:e4:
         73:65:84:e3:28:a9:7b:59:08:05:44:b6:e6:45:b0:80:e9:e6:
         10:1e:a4:a0:07:00:b2:4b:9b:3c:74:1f:2a:23:cf:ab:61:c9:
         b7:6e:79:f4:21:a3:a5:3e:7f:4d:39:83:58:80:56:76:4c:28:
         39:17:5c:74:32:22:d9:4e:97:6f:60:58:11:00:a1:f9:b5:d4:
         f7:34:f7:3d:d4:bd:63:8c:cc:de:6b:6d:b5:02:2e:54:3f:5b:
         00:73:0b:62:22:2c:ea:14:ba:27:a9:85:78:ca:84:79:a0:f9:
         7b:56:55:81:24:fd:10:0d:5b:76:16:c0:a1:f6:02:d5:02:49:
         11:47:e3:34
-----BEGIN CERTIFICATE-----
MIIEKjCCAxKgAwIBAgIBATANBgkqhkiG9w0BAQUFADBOMQswCQYDVQQGEwJIbjEU
MBIGA1UECgwLVW5pdGVjIFJvb3QxEjAQBgNVBAsMCUlubm92YXRlYzEVMBMGA1UE
AwwMSW5ub3ZhdGVjIENBMB4XDTIwMDEwMzA2MTQ1MVoXDTIyMDEwMjA2MTQ1MVow
VTELMAkGA1UEBhMCSG4xFDASBgNVBAoMC1VuaXRlYyBSb290MRUwEwYDVQQLDAxJ
bm5vdmF0ZWMgQ0ExGTAXBgNVBAMMEHd3dy5pbm5vdmF0ZWMuaG4wggEiMA0GCSqG
SIb3DQEBAQUAA4IBDwAwggEKAoIBAQDfcVA7M+Na2XajNiAG9NXXoZ+MiYCHtU04
1fp4gb+s92Sc6ESFZYwGET0f5z0By7h/hQ2zk1tePzT2lUC7/UiLQpNYukuN+ora
t/KA8Fiv3WPXov0XJEf6R8d7+IBoBuWBIoL4hqZ4K6iaDuoRnfUFCdJAxp4UKVcL
nXUlf7FqbbrXbnAtqqhEAZqJHDw3b2B+l59aR1mXFAi4IcG0O20XJkRAnadcUsrR
ulB5e7wLJz3xrcpHvoZADPONEskhXPA050plfBRiQfKlivf6PLWCR2LzMjJO6GLv
+7UpiqTUL4YtdJr+3Ua4lv/A0QTuqkBSkXWC6j683s7+APJtxBUrAgMBAAGjggEK
MIIBBjAOBgNVHQ8BAf8EBAMCB4AwCQYDVR0TBAIwADATBgNVHSUEDDAKBggrBgEF
BQcDAjAdBgNVHQ4EFgQUpWyhaRhsC5QLoxvOqtYuP5P53BYwHwYDVR0jBBgwFoAU
XiiOwa4vE3EhepQ2+VO4hYOhnf8wQQYIKwYBBQUHAQEENTAzMDEGCCsGAQUFBzAC
hiVodHRwOi8vaW5ub3ZhdGVjLmNvbS9pbm5vdmF0ZWMtY2EuY2VyMDYGA1UdHwQv
MC0wK6ApoCeGJWh0dHA6Ly9pbm5vdmF0ZWMuY29tL2lubm92YXRlYy1jYS5jcmww
GQYDVR0RBBIwEIIOeW91cmRvbWFpbi50bGQwDQYJKoZIhvcNAQEFBQADggEBADpS
panNOvJhTPLxTKl6ZwE45L8haFlfp6t01DiHLJETNxDE057Qwjh9dExWVDRhtooZ
0OKNkR22p9ffth1JOiK4DXdsTT+TDMXK9plCXOC1Q6YEXbbY40MgyvekcRtPCpkj
/Hza1Bypti6viiR2SFMeoi7CrYOe4p7lZdH35HNlhOMoqXtZCAVEtuZFsIDp5hAe
pKAHALJLmzx0Hyojz6thybduefQho6U+f005g1iAVnZMKDkXXHQyItlOl29gWBEA
ofm11Pc09z3UvWOMzN5rbbUCLlQ/WwBzC2IiLOoUuiephXjKhHmg+XtWVYEk/RAN
W3YWwKH2AtUCSRFH4zQ=
-----END CERTIFICATE-----
