Certificate:
    Data:
        Version: 3 (0x2)
        Serial Number: 2 (0x2)
    Signature Algorithm: sha1WithRSAEncryption
        Issuer: C=Hn, O=Unitec Root, OU=Innovatec, CN=Innovatec CA
        Validity
            Not Before: Jan  3 06:19:53 2020 GMT
            Not After : Jan  2 06:19:53 2022 GMT
        Subject: C=Hn, O=Innovatec, OU=Alumno, CN=Barney Rubble
        Subject Public Key Info:
            Public Key Algorithm: rsaEncryption
                Public-Key: (2048 bit)
                Modulus:
                    00:df:2f:d8:f9:b5:0f:33:74:aa:a8:51:45:ca:2b:
                    99:a9:46:00:3c:83:53:f4:3d:ec:32:dd:f5:a0:9b:
                    4f:05:d8:45:8c:55:44:37:56:3d:3b:cb:d6:57:fa:
                    16:69:23:60:56:d9:78:34:bb:09:ad:ad:75:12:28:
                    c2:b6:67:a9:b9:c8:93:d3:15:aa:95:e2:d3:07:12:
                    58:a2:6b:cb:7e:40:37:9b:34:ab:57:08:d5:2e:2b:
                    e0:69:08:43:8e:ad:e7:5e:d9:dd:00:4e:95:78:b7:
                    bb:2c:f1:e9:0b:ad:7a:2b:ac:07:3b:8e:43:ce:9b:
                    b9:47:69:9b:11:80:38:c0:8b:ea:1b:48:3c:62:7c:
                    8a:57:0f:07:6f:95:94:8b:ef:ce:d2:56:2b:10:bb:
                    dc:fa:56:df:53:a9:d2:ea:11:aa:8f:96:98:42:06:
                    43:6a:81:e0:96:ed:18:78:72:44:74:42:3b:4c:55:
                    ab:30:77:7c:f1:4f:46:62:33:45:49:c9:0a:01:a3:
                    87:25:f0:24:28:ea:d9:8e:4e:d5:c0:64:d6:a8:ff:
                    40:80:8d:52:48:eb:30:b1:c6:f4:a1:a9:34:e3:2d:
                    76:8e:d8:76:33:49:97:92:e1:9b:bb:0d:1c:bc:81:
                    8e:a5:5c:e3:49:f4:9c:e6:9e:d5:1f:68:d6:95:5e:
                    87:01
                Exponent: 65537 (0x10001)
        X509v3 extensions:
            X509v3 Key Usage: critical
                Digital Signature
            X509v3 Basic Constraints: 
                CA:FALSE
            X509v3 Extended Key Usage: 
                TLS Web Client Authentication
            X509v3 Subject Key Identifier: 
                D5:77:F3:DC:E7:32:CA:DA:B2:1A:63:2C:2B:3B:4B:96:76:6A:EF:0E
            X509v3 Authority Key Identifier: 
                keyid:5E:28:8E:C1:AE:2F:13:71:21:7A:94:36:F9:53:B8:85:83:A1:9D:FF

            Authority Information Access: 
                CA Issuers - URI:http://innovatec.com/innovatec-ca.cer

            X509v3 CRL Distribution Points: 

                Full Name:
                  URI:http://innovatec.com/innovatec-ca.crl

            X509v3 Subject Alternative Name: 
                email:barney@innovatec.hn
    Signature Algorithm: sha1WithRSAEncryption
         52:17:a1:bf:dc:e4:17:4b:1a:9f:51:8a:80:36:70:59:f2:eb:
         42:18:6a:f5:da:ff:e8:31:ca:00:43:2d:0a:ac:59:60:94:fb:
         0e:ea:fe:c7:e1:c3:bc:61:1e:94:69:6d:29:ba:6e:7b:cb:a6:
         33:7c:5b:4b:cf:ef:ce:0a:ad:98:25:7c:10:5c:54:79:a2:d7:
         6c:df:a3:23:3e:1d:80:c6:d7:fe:1b:e4:50:11:3a:e1:3a:f2:
         91:1c:53:a9:a6:10:7e:f8:e1:af:c5:b8:de:5b:2c:82:bb:b3:
         4d:81:c4:f9:13:07:a6:3c:03:37:0c:bc:7d:89:21:76:c2:5f:
         58:8f:b5:f7:5f:bd:26:6e:a5:62:be:bb:5f:45:a9:a1:e6:8e:
         20:2d:1c:87:46:c5:04:d8:b2:34:62:26:bf:79:05:99:c0:be:
         8d:b1:85:4f:40:19:3b:57:9d:f2:d8:9a:a6:1a:a4:65:bc:f8:
         70:33:ba:20:15:e2:d6:13:89:2b:e0:1f:ff:be:35:25:fb:55:
         83:70:f8:b7:c0:ef:22:77:83:5d:48:4d:cd:5f:00:3c:0a:43:
         c5:d2:2a:23:52:ff:06:6a:ad:e4:12:8e:a2:c0:f6:51:9e:fd:
         ab:d7:bf:ae:32:4d:9a:c0:7a:f9:94:f3:ca:7e:7f:19:a0:58:
         f3:9d:cf:0b
-----BEGIN CERTIFICATE-----
MIIEJDCCAwygAwIBAgIBAjANBgkqhkiG9w0BAQUFADBOMQswCQYDVQQGEwJIbjEU
MBIGA1UECgwLVW5pdGVjIFJvb3QxEjAQBgNVBAsMCUlubm92YXRlYzEVMBMGA1UE
AwwMSW5ub3ZhdGVjIENBMB4XDTIwMDEwMzA2MTk1M1oXDTIyMDEwMjA2MTk1M1ow
SjELMAkGA1UEBhMCSG4xEjAQBgNVBAoMCUlubm92YXRlYzEPMA0GA1UECwwGQWx1
bW5vMRYwFAYDVQQDDA1CYXJuZXkgUnViYmxlMIIBIjANBgkqhkiG9w0BAQEFAAOC
AQ8AMIIBCgKCAQEA3y/Y+bUPM3SqqFFFyiuZqUYAPINT9D3sMt31oJtPBdhFjFVE
N1Y9O8vWV/oWaSNgVtl4NLsJra11EijCtmepuciT0xWqleLTBxJYomvLfkA3mzSr
VwjVLivgaQhDjq3nXtndAE6VeLe7LPHpC616K6wHO45Dzpu5R2mbEYA4wIvqG0g8
YnyKVw8Hb5WUi+/O0lYrELvc+lbfU6nS6hGqj5aYQgZDaoHglu0YeHJEdEI7TFWr
MHd88U9GYjNFSckKAaOHJfAkKOrZjk7VwGTWqP9AgI1SSOswscb0oak04y12jth2
M0mXkuGbuw0cvIGOpVzjSfSc5p7VH2jWlV6HAQIDAQABo4IBDzCCAQswDgYDVR0P
AQH/BAQDAgeAMAkGA1UdEwQCMAAwEwYDVR0lBAwwCgYIKwYBBQUHAwIwHQYDVR0O
BBYEFNV389znMsrashpjLCs7S5Z2au8OMB8GA1UdIwQYMBaAFF4ojsGuLxNxIXqU
NvlTuIWDoZ3/MEEGCCsGAQUFBwEBBDUwMzAxBggrBgEFBQcwAoYlaHR0cDovL2lu
bm92YXRlYy5jb20vaW5ub3ZhdGVjLWNhLmNlcjA2BgNVHR8ELzAtMCugKaAnhiVo
dHRwOi8vaW5ub3ZhdGVjLmNvbS9pbm5vdmF0ZWMtY2EuY3JsMB4GA1UdEQQXMBWB
E2Jhcm5leUBpbm5vdmF0ZWMuaG4wDQYJKoZIhvcNAQEFBQADggEBAFIXob/c5BdL
Gp9RioA2cFny60IYavXa/+gxygBDLQqsWWCU+w7q/sfhw7xhHpRpbSm6bnvLpjN8
W0vP784KrZglfBBcVHmi12zfoyM+HYDG1/4b5FAROuE68pEcU6mmEH744a/FuN5b
LIK7s02BxPkTB6Y8AzcMvH2JIXbCX1iPtfdfvSZupWK+u19FqaHmjiAtHIdGxQTY
sjRiJr95BZnAvo2xhU9AGTtXnfLYmqYapGW8+HAzuiAV4tYTiSvgH/++NSX7VYNw
+LfA7yJ3g11ITc1fADwKQ8XSKiNS/wZqreQSjqLA9lGe/avXv64yTZrAevmU88p+
fxmgWPOdzws=
-----END CERTIFICATE-----
