Certificate:
    Data:
        Version: 3 (0x2)
        Serial Number: 4 (0x4)
    Signature Algorithm: sha1WithRSAEncryption
        Issuer: C=Hn, O=Unitec Root, OU=Innovatec, CN=Innovatec CA
        Validity
            Not Before: Jan  3 06:59:25 2020 GMT
            Not After : Jan  2 06:59:25 2022 GMT
        Subject: C=Hn, O=Innovatec, OU=Alumno, CN=Barney Rubble
        Subject Public Key Info:
            Public Key Algorithm: rsaEncryption
                Public-Key: (2048 bit)
                Modulus:
                    00:d5:87:b5:c7:ab:a1:9a:98:cf:d3:00:17:58:7d:
                    01:72:d7:bd:24:91:78:92:3a:ee:34:ba:c5:25:5d:
                    5c:21:c9:f0:08:7a:ad:3a:3b:73:fb:20:7e:49:76:
                    86:92:a9:24:d9:bf:9d:74:f8:65:9b:c1:f4:1f:6b:
                    5a:eb:ee:7f:ef:25:e9:1b:0e:ae:8c:18:fa:2d:5b:
                    f0:62:a7:50:12:d8:43:f2:5a:e1:0f:fd:87:90:3d:
                    92:a7:5a:f5:92:e1:f8:3d:c8:bc:28:ed:b9:72:9a:
                    a9:1a:c4:84:64:0f:7c:42:9b:fe:5e:42:5e:77:11:
                    f3:ce:6a:60:53:49:f9:55:54:f7:ec:3d:7b:a5:13:
                    14:f1:02:d7:96:68:9b:b9:8d:b3:66:36:ee:ce:77:
                    5d:ca:43:6f:0c:a3:a5:62:51:32:a3:78:65:ab:f6:
                    7b:f6:94:a2:ef:91:3f:6d:af:fb:cb:ee:5c:16:8e:
                    24:63:c7:ac:0e:df:47:8a:35:50:d0:97:37:e3:a1:
                    d6:c1:62:1d:83:cf:6c:e7:cf:e9:41:27:33:4d:a5:
                    59:52:cd:6f:87:61:43:b6:9c:55:c3:bb:9a:9b:84:
                    3f:19:d5:83:1e:15:55:55:26:13:4a:c4:96:ad:7d:
                    31:60:96:bd:c3:17:31:38:06:f5:39:9f:9e:8f:07:
                    d9:63
                Exponent: 65537 (0x10001)
        X509v3 extensions:
            X509v3 Key Usage: critical
                Digital Signature
            X509v3 Basic Constraints: 
                CA:FALSE
            X509v3 Extended Key Usage: 
                TLS Web Client Authentication, Any Extended Key Usage
            X509v3 Subject Key Identifier: 
                40:7E:97:9E:BB:42:35:9D:E9:69:C7:FC:D9:D6:71:2F:11:21:CE:87
            X509v3 Authority Key Identifier: 
                keyid:5E:28:8E:C1:AE:2F:13:71:21:7A:94:36:F9:53:B8:85:83:A1:9D:FF

            Authority Information Access: 
                CA Issuers - URI:http://innovatec.com/innovatec-ca.cer

            X509v3 CRL Distribution Points: 

                Full Name:
                  URI:http://innovatec.com/innovatec-ca.crl

            X509v3 Subject Alternative Name: 
                email:barney@innovatec.hn
    Signature Algorithm: sha1WithRSAEncryption
         20:90:2b:02:0f:f8:2f:e4:9d:f4:1d:96:b7:20:2f:2f:65:f5:
         ff:f0:f2:1d:3d:80:79:c6:dd:56:aa:0b:9a:2e:93:f9:35:92:
         a4:a8:5a:db:db:5c:f4:99:e9:b8:be:31:24:f4:5f:cf:10:c7:
         99:cf:58:61:18:40:00:46:66:bf:d1:03:e0:c2:fb:67:e5:0b:
         af:13:56:5f:21:1c:dd:e1:b1:3b:5d:24:33:f1:fc:24:f9:42:
         13:1a:dc:10:05:ef:ef:a3:3a:3d:0b:cc:a9:92:94:40:fb:32:
         e4:4f:7d:f0:e8:8a:b2:12:60:b4:e7:a5:f5:43:65:89:09:23:
         e9:e7:4b:de:67:a7:dd:2f:d2:e4:f6:c3:b5:4d:05:03:ba:00:
         9f:96:68:ae:93:b9:2c:05:eb:ba:39:45:af:c5:33:6a:c5:e6:
         2f:7c:aa:2e:cf:d4:9b:8a:ae:63:87:71:09:e0:f8:72:fc:e6:
         65:80:9f:7b:14:97:0d:48:41:34:2e:3e:8c:5a:bf:90:e0:9d:
         f3:99:1f:1d:d8:3a:b5:04:ae:52:1e:59:e3:00:30:c6:93:62:
         22:7d:13:59:65:d2:50:b8:08:f8:9e:91:86:87:68:7b:ac:10:
         ff:8c:76:bc:ff:d8:f4:df:c7:fe:06:57:19:86:77:d2:e3:f9:
         ba:cf:9b:ea
-----BEGIN CERTIFICATE-----
MIIEKjCCAxKgAwIBAgIBBDANBgkqhkiG9w0BAQUFADBOMQswCQYDVQQGEwJIbjEU
MBIGA1UECgwLVW5pdGVjIFJvb3QxEjAQBgNVBAsMCUlubm92YXRlYzEVMBMGA1UE
AwwMSW5ub3ZhdGVjIENBMB4XDTIwMDEwMzA2NTkyNVoXDTIyMDEwMjA2NTkyNVow
SjELMAkGA1UEBhMCSG4xEjAQBgNVBAoMCUlubm92YXRlYzEPMA0GA1UECwwGQWx1
bW5vMRYwFAYDVQQDDA1CYXJuZXkgUnViYmxlMIIBIjANBgkqhkiG9w0BAQEFAAOC
AQ8AMIIBCgKCAQEA1Ye1x6uhmpjP0wAXWH0Bcte9JJF4kjruNLrFJV1cIcnwCHqt
Ojtz+yB+SXaGkqkk2b+ddPhlm8H0H2ta6+5/7yXpGw6ujBj6LVvwYqdQEthD8lrh
D/2HkD2Sp1r1kuH4Pci8KO25cpqpGsSEZA98Qpv+XkJedxHzzmpgU0n5VVT37D17
pRMU8QLXlmibuY2zZjbuznddykNvDKOlYlEyo3hlq/Z79pSi75E/ba/7y+5cFo4k
Y8esDt9HijVQ0Jc346HWwWIdg89s58/pQSczTaVZUs1vh2FDtpxVw7uam4Q/GdWD
HhVVVSYTSsSWrX0xYJa9wxcxOAb1OZ+ejwfZYwIDAQABo4IBFTCCAREwDgYDVR0P
AQH/BAQDAgeAMAkGA1UdEwQCMAAwGQYDVR0lBBIwEAYIKwYBBQUHAwIGBFUdJQAw
HQYDVR0OBBYEFEB+l567QjWd6WnH/NnWcS8RIc6HMB8GA1UdIwQYMBaAFF4ojsGu
LxNxIXqUNvlTuIWDoZ3/MEEGCCsGAQUFBwEBBDUwMzAxBggrBgEFBQcwAoYlaHR0
cDovL2lubm92YXRlYy5jb20vaW5ub3ZhdGVjLWNhLmNlcjA2BgNVHR8ELzAtMCug
KaAnhiVodHRwOi8vaW5ub3ZhdGVjLmNvbS9pbm5vdmF0ZWMtY2EuY3JsMB4GA1Ud
EQQXMBWBE2Jhcm5leUBpbm5vdmF0ZWMuaG4wDQYJKoZIhvcNAQEFBQADggEBACCQ
KwIP+C/knfQdlrcgLy9l9f/w8h09gHnG3VaqC5ouk/k1kqSoWtvbXPSZ6bi+MST0
X88Qx5nPWGEYQABGZr/RA+DC+2flC68TVl8hHN3hsTtdJDPx/CT5QhMa3BAF7++j
Oj0LzKmSlED7MuRPffDoirISYLTnpfVDZYkJI+nnS95np90v0uT2w7VNBQO6AJ+W
aK6TuSwF67o5Ra/FM2rF5i98qi7P1JuKrmOHcQng+HL85mWAn3sUlw1IQTQuPoxa
v5DgnfOZHx3YOrUErlIeWeMAMMaTYiJ9E1ll0lC4CPiekYaHaHusEP+Mdrz/2PTf
x/4GVxmGd9Lj+brPm+o=
-----END CERTIFICATE-----
