Certificate:
    Data:
        Version: 3 (0x2)
        Serial Number: 5 (0x5)
    Signature Algorithm: sha1WithRSAEncryption
        Issuer: C=Hn, O=Unitec Root, OU=Innovatec, CN=Innovatec CA
        Validity
            Not Before: Jan  3 07:23:12 2020 GMT
            Not After : Jan  2 07:23:12 2022 GMT
        Subject: C=Hn, O=Unitec Root, OU=Innovatec CA, CN=www.oscarzuniga.live
        Subject Public Key Info:
            Public Key Algorithm: rsaEncryption
                Public-Key: (2048 bit)
                Modulus:
                    00:d0:21:f5:c3:50:56:01:e5:49:05:d4:d6:e0:da:
                    6c:33:13:45:10:60:35:a5:7f:07:93:52:21:ca:83:
                    6b:88:88:68:8c:49:28:6a:86:63:7f:16:3d:45:22:
                    65:b4:fd:40:3d:78:f5:d9:bf:5d:6c:64:34:5f:6f:
                    93:63:bb:f9:e4:46:df:72:82:37:a2:0f:d5:bd:44:
                    33:c7:21:a9:e0:2b:32:82:18:8e:e7:bb:f6:77:ce:
                    a5:ba:0d:56:e0:d8:2d:67:96:70:eb:89:f8:f5:b8:
                    f9:28:23:59:12:5d:34:77:a1:2a:ee:43:37:fc:25:
                    56:e7:41:c0:2b:6b:2d:e6:47:35:8d:ac:32:e0:22:
                    e9:e7:71:8f:88:75:7e:b5:73:4f:0c:52:da:25:60:
                    6a:b8:c8:28:a6:d7:36:73:c5:d6:f2:06:a7:31:3f:
                    5e:36:aa:e7:59:5d:06:40:0d:34:7c:c2:31:d5:2a:
                    23:82:92:2a:8f:e6:d6:f5:9d:ca:bd:f9:9c:5b:92:
                    21:72:82:cd:07:3e:60:3e:36:91:b3:d4:e6:2e:ff:
                    bf:08:19:af:d8:3d:33:35:e3:79:3b:b0:d9:62:67:
                    14:9a:a4:50:03:76:f4:b9:c7:fb:bc:60:49:b6:e7:
                    f4:31:fe:4b:02:fb:f2:81:27:45:ea:24:38:6f:98:
                    bf:63
                Exponent: 65537 (0x10001)
        X509v3 extensions:
            X509v3 Key Usage: critical
                Digital Signature, Key Encipherment
            X509v3 Basic Constraints: 
                CA:FALSE
            X509v3 Extended Key Usage: 
                TLS Web Server Authentication, TLS Web Client Authentication
            X509v3 Subject Key Identifier: 
                3F:9F:61:FB:8C:8E:A5:F4:76:21:76:9E:33:44:CF:47:53:46:12:E4
            X509v3 Authority Key Identifier: 
                keyid:5E:28:8E:C1:AE:2F:13:71:21:7A:94:36:F9:53:B8:85:83:A1:9D:FF

            Authority Information Access: 
                CA Issuers - URI:http://innovatec.com/innovatec-ca.cer

            X509v3 CRL Distribution Points: 

                Full Name:
                  URI:http://innovatec.com/innovatec-ca.crl

            X509v3 Subject Alternative Name: 
                DNS:yourdomain.tld
    Signature Algorithm: sha1WithRSAEncryption
         41:a3:3a:76:d3:ab:76:fb:1a:f3:ee:2d:04:5a:fa:e7:d9:15:
         f5:be:a6:20:2c:17:07:80:e3:5d:33:fb:e4:33:46:9d:10:6b:
         7d:00:9d:03:5b:6a:d0:a8:d8:ba:bd:e2:f4:ef:c1:fe:0f:02:
         ff:46:a7:7b:aa:1e:28:2d:fc:3b:6f:71:cc:b7:76:6e:ba:54:
         b3:69:10:2e:f3:9b:78:43:ee:43:4d:60:28:9d:6e:43:ff:7c:
         b7:e3:0d:62:36:f8:d5:38:09:c7:32:7d:2a:73:d7:0d:52:73:
         fc:88:64:a0:f0:2b:f1:f7:90:c5:59:a0:56:72:51:1e:f2:98:
         08:d5:3b:72:54:c5:d7:4d:e6:62:18:21:d6:94:e6:f2:96:8d:
         10:84:38:58:d9:05:bc:ee:99:72:7c:56:4c:f0:98:37:66:5e:
         90:44:29:8a:2a:d1:0f:b2:cb:c7:76:fd:15:2a:8c:ab:fa:77:
         1d:f2:a0:0a:2e:9b:f3:31:0e:be:49:8b:73:1d:8c:bf:05:3c:
         a1:27:1f:ce:66:24:58:06:32:f8:f9:fa:a9:6b:d3:ca:d3:cf:
         40:b3:4b:14:35:23:da:64:85:72:9a:f3:7a:11:f8:58:89:0b:
         d2:11:27:77:13:eb:8b:f3:c5:10:83:38:56:ab:9f:52:89:36:
         2f:28:33:7f
-----BEGIN CERTIFICATE-----
MIIEODCCAyCgAwIBAgIBBTANBgkqhkiG9w0BAQUFADBOMQswCQYDVQQGEwJIbjEU
MBIGA1UECgwLVW5pdGVjIFJvb3QxEjAQBgNVBAsMCUlubm92YXRlYzEVMBMGA1UE
AwwMSW5ub3ZhdGVjIENBMB4XDTIwMDEwMzA3MjMxMloXDTIyMDEwMjA3MjMxMlow
WTELMAkGA1UEBhMCSG4xFDASBgNVBAoMC1VuaXRlYyBSb290MRUwEwYDVQQLDAxJ
bm5vdmF0ZWMgQ0ExHTAbBgNVBAMMFHd3dy5vc2Nhcnp1bmlnYS5saXZlMIIBIjAN
BgkqhkiG9w0BAQEFAAOCAQ8AMIIBCgKCAQEA0CH1w1BWAeVJBdTW4NpsMxNFEGA1
pX8Hk1IhyoNriIhojEkoaoZjfxY9RSJltP1APXj12b9dbGQ0X2+TY7v55EbfcoI3
og/VvUQzxyGp4CsyghiO57v2d86lug1W4NgtZ5Zw64n49bj5KCNZEl00d6Eq7kM3
/CVW50HAK2st5kc1jawy4CLp53GPiHV+tXNPDFLaJWBquMgoptc2c8XW8ganMT9e
NqrnWV0GQA00fMIx1SojgpIqj+bW9Z3KvfmcW5IhcoLNBz5gPjaRs9TmLv+/CBmv
2D0zNeN5O7DZYmcUmqRQA3b0ucf7vGBJtuf0Mf5LAvvygSdF6iQ4b5i/YwIDAQAB
o4IBFDCCARAwDgYDVR0PAQH/BAQDAgWgMAkGA1UdEwQCMAAwHQYDVR0lBBYwFAYI
KwYBBQUHAwEGCCsGAQUFBwMCMB0GA1UdDgQWBBQ/n2H7jI6l9HYhdp4zRM9HU0YS
5DAfBgNVHSMEGDAWgBReKI7Bri8TcSF6lDb5U7iFg6Gd/zBBBggrBgEFBQcBAQQ1
MDMwMQYIKwYBBQUHMAKGJWh0dHA6Ly9pbm5vdmF0ZWMuY29tL2lubm92YXRlYy1j
YS5jZXIwNgYDVR0fBC8wLTAroCmgJ4YlaHR0cDovL2lubm92YXRlYy5jb20vaW5u
b3ZhdGVjLWNhLmNybDAZBgNVHREEEjAQgg55b3VyZG9tYWluLnRsZDANBgkqhkiG
9w0BAQUFAAOCAQEAQaM6dtOrdvsa8+4tBFr659kV9b6mICwXB4DjXTP75DNGnRBr
fQCdA1tq0KjYur3i9O/B/g8C/0ane6oeKC38O29xzLd2brpUs2kQLvObeEPuQ01g
KJ1uQ/98t+MNYjb41TgJxzJ9KnPXDVJz/IhkoPAr8feQxVmgVnJRHvKYCNU7clTF
103mYhgh1pTm8paNEIQ4WNkFvO6ZcnxWTPCYN2ZekEQpiirRD7LLx3b9FSqMq/p3
HfKgCi6b8zEOvkmLcx2MvwU8oScfzmYkWAYy+Pn6qWvTytPPQLNLFDUj2mSFcprz
ehH4WIkL0hEndxPri/PFEIM4VqufUok2Lygzfw==
-----END CERTIFICATE-----
