Certificate:
    Data:
        Version: 3 (0x2)
        Serial Number: 6 (0x6)
    Signature Algorithm: sha1WithRSAEncryption
        Issuer: C=Hn, O=Unitec Root, OU=Innovatec, CN=Innovatec CA
        Validity
            Not Before: Jan  3 07:24:55 2020 GMT
            Not After : Jan  2 07:24:55 2022 GMT
        Subject: C=Hn, O=Innovatec, OU=Alumno, CN=Barney Rubble
        Subject Public Key Info:
            Public Key Algorithm: rsaEncryption
                Public-Key: (2048 bit)
                Modulus:
                    00:e8:08:79:e0:42:96:ea:d5:6c:b2:47:3a:31:24:
                    f1:77:a9:07:54:b9:b6:77:1a:b2:88:36:ec:b9:f7:
                    02:be:1f:47:00:ea:49:e5:a7:f0:35:51:0b:b9:22:
                    96:68:2e:aa:66:c8:ab:17:ab:56:50:2b:4c:29:7e:
                    1c:37:bf:6a:80:0b:39:cc:66:80:95:48:85:65:c4:
                    4c:9b:f6:fb:9a:64:6b:20:39:ed:10:0b:43:57:30:
                    3d:81:81:5d:56:d0:41:78:14:b6:34:e7:fb:b5:b7:
                    6c:b6:08:0b:c0:22:6e:33:bf:d2:da:83:da:11:34:
                    56:28:af:4c:56:5c:1d:b8:4f:ab:3a:f5:e9:fe:7c:
                    b4:12:7d:fc:46:2e:a0:f0:a6:b3:0c:92:b0:d1:39:
                    90:97:c9:92:04:82:fb:29:50:a4:33:f4:f0:9c:c7:
                    b9:66:a9:fe:59:7d:65:0b:d4:ab:a7:04:ea:d0:cb:
                    78:66:9c:ad:9b:23:a2:8e:c6:85:ba:10:9f:de:f9:
                    d9:40:08:69:b2:e2:06:ac:7e:f3:8e:22:c2:3c:a3:
                    d4:09:d2:5e:f3:25:e0:49:f8:59:54:e9:02:7b:f5:
                    2a:7a:33:f8:9d:e2:0f:40:9a:8d:dd:1f:69:0f:3b:
                    3b:bf:18:e9:b8:5c:33:70:c0:27:a4:0f:88:b1:f3:
                    e7:e3
                Exponent: 65537 (0x10001)
        X509v3 extensions:
            X509v3 Key Usage: critical
                Digital Signature
            X509v3 Basic Constraints: 
                CA:FALSE
            X509v3 Extended Key Usage: 
                TLS Web Client Authentication, Any Extended Key Usage
            X509v3 Subject Key Identifier: 
                76:D7:A7:69:C0:26:66:13:0E:1D:4D:CA:EF:70:88:DC:EF:26:76:43
            X509v3 Authority Key Identifier: 
                keyid:5E:28:8E:C1:AE:2F:13:71:21:7A:94:36:F9:53:B8:85:83:A1:9D:FF

            Authority Information Access: 
                CA Issuers - URI:http://innovatec.com/innovatec-ca.cer

            X509v3 CRL Distribution Points: 

                Full Name:
                  URI:http://innovatec.com/innovatec-ca.crl

            X509v3 Subject Alternative Name: 
                email:barney@innovatec.hn
    Signature Algorithm: sha1WithRSAEncryption
         a6:da:10:f9:33:92:a0:b9:e9:b2:9c:14:06:4a:11:48:33:52:
         01:3d:4d:22:3d:a9:b0:a3:35:79:2e:93:f7:64:90:0c:43:4b:
         8a:80:25:62:49:74:64:39:58:5a:b2:ee:6e:84:55:76:a4:72:
         29:b8:fc:b7:b3:83:af:dc:8b:82:79:ab:2f:62:2a:6a:6d:c1:
         c1:e9:2f:64:92:cf:e8:51:7f:1a:1a:9b:68:df:25:51:70:aa:
         1a:02:42:31:1d:ca:13:60:93:d7:07:37:20:85:d5:94:13:7b:
         1c:98:09:29:1e:78:57:18:9a:68:ff:70:69:a9:4e:ed:bb:bf:
         75:0f:e7:d6:a2:0b:f8:4f:c6:2d:48:88:c3:c2:72:98:d5:e4:
         3c:07:93:58:b3:9a:79:68:ac:a0:a1:a5:05:a3:75:2c:e7:d5:
         7c:fc:71:5a:0f:81:6e:1c:a4:f5:92:d6:2b:47:78:22:b4:fa:
         75:23:ed:52:b0:db:99:be:5f:b9:f9:9d:2f:41:b4:39:12:7b:
         63:a6:54:70:14:d4:5a:7b:5e:ef:c5:b1:0f:45:9f:12:92:3f:
         f9:52:3b:9d:c2:dc:da:bf:68:b3:ce:92:77:7f:de:cd:b6:f5:
         b8:9f:0b:de:ac:bc:1c:6a:92:67:91:e0:f2:65:f6:db:d3:48:
         5b:7a:a3:d3
-----BEGIN CERTIFICATE-----
MIIEKjCCAxKgAwIBAgIBBjANBgkqhkiG9w0BAQUFADBOMQswCQYDVQQGEwJIbjEU
MBIGA1UECgwLVW5pdGVjIFJvb3QxEjAQBgNVBAsMCUlubm92YXRlYzEVMBMGA1UE
AwwMSW5ub3ZhdGVjIENBMB4XDTIwMDEwMzA3MjQ1NVoXDTIyMDEwMjA3MjQ1NVow
SjELMAkGA1UEBhMCSG4xEjAQBgNVBAoMCUlubm92YXRlYzEPMA0GA1UECwwGQWx1
bW5vMRYwFAYDVQQDDA1CYXJuZXkgUnViYmxlMIIBIjANBgkqhkiG9w0BAQEFAAOC
AQ8AMIIBCgKCAQEA6Ah54EKW6tVsskc6MSTxd6kHVLm2dxqyiDbsufcCvh9HAOpJ
5afwNVELuSKWaC6qZsirF6tWUCtMKX4cN79qgAs5zGaAlUiFZcRMm/b7mmRrIDnt
EAtDVzA9gYFdVtBBeBS2NOf7tbdstggLwCJuM7/S2oPaETRWKK9MVlwduE+rOvXp
/ny0En38Ri6g8KazDJKw0TmQl8mSBIL7KVCkM/TwnMe5Zqn+WX1lC9SrpwTq0Mt4
ZpytmyOijsaFuhCf3vnZQAhpsuIGrH7zjiLCPKPUCdJe8yXgSfhZVOkCe/UqejP4
neIPQJqN3R9pDzs7vxjpuFwzcMAnpA+IsfPn4wIDAQABo4IBFTCCAREwDgYDVR0P
AQH/BAQDAgeAMAkGA1UdEwQCMAAwGQYDVR0lBBIwEAYIKwYBBQUHAwIGBFUdJQAw
HQYDVR0OBBYEFHbXp2nAJmYTDh1Nyu9wiNzvJnZDMB8GA1UdIwQYMBaAFF4ojsGu
LxNxIXqUNvlTuIWDoZ3/MEEGCCsGAQUFBwEBBDUwMzAxBggrBgEFBQcwAoYlaHR0
cDovL2lubm92YXRlYy5jb20vaW5ub3ZhdGVjLWNhLmNlcjA2BgNVHR8ELzAtMCug
KaAnhiVodHRwOi8vaW5ub3ZhdGVjLmNvbS9pbm5vdmF0ZWMtY2EuY3JsMB4GA1Ud
EQQXMBWBE2Jhcm5leUBpbm5vdmF0ZWMuaG4wDQYJKoZIhvcNAQEFBQADggEBAKba
EPkzkqC56bKcFAZKEUgzUgE9TSI9qbCjNXkuk/dkkAxDS4qAJWJJdGQ5WFqy7m6E
VXakcim4/Lezg6/ci4J5qy9iKmptwcHpL2SSz+hRfxoam2jfJVFwqhoCQjEdyhNg
k9cHNyCF1ZQTexyYCSkeeFcYmmj/cGmpTu27v3UP59aiC/hPxi1IiMPCcpjV5DwH
k1izmnlorKChpQWjdSzn1Xz8cVoPgW4cpPWS1itHeCK0+nUj7VKw25m+X7n5nS9B
tDkSe2OmVHAU1Fp7Xu/FsQ9FnxKSP/lSO53C3Nq/aLPOknd/3s229bifC96svBxq
kmeR4PJl9tvTSFt6o9M=
-----END CERTIFICATE-----
