Certificate:
    Data:
        Version: 3 (0x2)
        Serial Number: 4 (0x4)
    Signature Algorithm: sha1WithRSAEncryption
        Issuer: C=Hn, O=Unitec Root, OU=Unitec Autoridad Certificadora, CN=Unitec CA
        Validity
            Not Before: Jan  3 06:00:46 2020 GMT
            Not After : Jan  2 06:00:46 2030 GMT
        Subject: C=Hn, O=Unitec Root, OU=Unitec, CN=Unitec CA
        Subject Public Key Info:
            Public Key Algorithm: rsaEncryption
                Public-Key: (2048 bit)
                Modulus:
                    00:d0:20:5c:22:d3:cf:99:8e:ff:4c:90:b3:13:26:
                    56:dc:56:03:84:c1:f6:81:45:d0:09:c9:83:9d:b7:
                    e3:42:4f:a8:ca:cd:4c:6d:7e:42:05:1f:c6:1d:b6:
                    e6:ba:39:b5:ab:15:fd:71:7d:1d:e5:67:05:b5:ca:
                    4a:ed:d7:87:df:6b:71:04:22:64:5f:13:75:77:a9:
                    13:0e:3f:6b:b9:40:57:29:d2:32:b9:39:a5:8c:ab:
                    9d:8b:1a:f0:16:c9:a2:ac:0b:64:bf:43:be:94:86:
                    06:8c:00:0f:57:c8:ff:17:c9:de:35:11:dd:7a:22:
                    c4:4b:04:2c:ea:07:5b:2b:ef:f7:33:d8:4e:76:c2:
                    d9:5a:b2:54:1b:31:ea:9a:4c:5f:14:e1:0b:e2:77:
                    16:2c:9d:f6:ad:57:ca:cb:97:1e:1d:8c:81:9a:60:
                    78:b6:df:ee:89:67:86:30:f2:02:e9:cf:50:02:9e:
                    6b:5b:f4:7c:48:f9:cb:9f:7a:9a:e8:21:c7:9f:f0:
                    37:2a:28:56:9a:e9:e1:e2:2b:35:e0:c0:7a:eb:c0:
                    37:3b:7d:1c:ff:bf:86:43:97:0a:c8:ac:15:55:58:
                    31:38:d7:46:8b:4c:78:87:39:0b:cf:6b:99:a8:83:
                    53:02:24:13:38:6b:c0:d6:35:64:98:58:d6:47:53:
                    f7:0d
                Exponent: 65537 (0x10001)
        X509v3 extensions:
            X509v3 Key Usage: critical
                Certificate Sign, CRL Sign
            X509v3 Basic Constraints: critical
                CA:TRUE, pathlen:0
            X509v3 Subject Key Identifier: 
                6A:72:29:0D:AD:B5:7C:3E:2C:99:C3:8F:1B:54:D0:95:EA:85:AA:6F
            X509v3 Authority Key Identifier: 
                keyid:41:30:13:29:6C:6A:1E:FC:DB:4A:9F:DC:C4:4D:49:AB:E7:EF:7B:B4

            Authority Information Access: 
                CA Issuers - URI:http://green.no/ca/root-ca.cer

            X509v3 CRL Distribution Points: 

                Full Name:
                  URI:http://green.no/ca/root-ca.crl

    Signature Algorithm: sha1WithRSAEncryption
         82:01:b7:22:fc:67:82:40:12:06:0c:52:5d:cc:5a:36:0c:cd:
         15:69:ab:39:3c:b5:c7:dc:b9:95:55:b6:57:9a:e6:66:68:f8:
         9c:5b:f6:50:22:ec:7d:96:67:1a:99:ab:5b:fe:62:9b:74:bc:
         9c:de:f3:25:20:2e:9a:c0:78:43:4f:9a:87:ed:18:8e:10:7b:
         ff:55:1c:c2:3f:12:a6:b6:51:93:4c:20:06:2e:2a:d1:44:94:
         ab:cb:21:f6:dc:33:ee:56:e5:d1:6b:2c:b7:e8:94:63:22:f6:
         8a:91:01:ff:9c:ea:0d:de:75:07:62:59:bc:19:b0:43:ab:fe:
         5e:67:bd:87:57:66:31:6c:1f:95:59:40:6f:0f:1a:31:99:42:
         8f:b5:f2:9b:ed:08:b2:5c:92:1a:d5:d3:fa:17:90:0c:7b:f1:
         de:68:d1:c9:08:27:c5:08:6e:c2:db:92:d6:f8:c0:5a:71:dd:
         8f:31:0b:03:d3:0d:ce:47:0c:a6:14:22:9f:ff:e6:d3:ec:8f:
         ee:85:54:52:1d:0e:dd:3e:70:92:00:31:a8:fa:8a:a8:3b:1d:
         16:cc:f4:db:1d:48:06:9b:03:03:62:21:6c:c9:c3:14:7f:21:
         c6:52:6d:c1:df:fa:92:75:c9:2e:d4:9f:e8:72:db:c7:06:d2:
         06:5d:6f:62
-----BEGIN CERTIFICATE-----
MIID+DCCAuCgAwIBAgIBBDANBgkqhkiG9w0BAQUFADBgMQswCQYDVQQGEwJIbjEU
MBIGA1UECgwLVW5pdGVjIFJvb3QxJzAlBgNVBAsMHlVuaXRlYyBBdXRvcmlkYWQg
Q2VydGlmaWNhZG9yYTESMBAGA1UEAwwJVW5pdGVjIENBMB4XDTIwMDEwMzA2MDA0
NloXDTMwMDEwMjA2MDA0NlowSDELMAkGA1UEBhMCSG4xFDASBgNVBAoMC1VuaXRl
YyBSb290MQ8wDQYDVQQLDAZVbml0ZWMxEjAQBgNVBAMMCVVuaXRlYyBDQTCCASIw
DQYJKoZIhvcNAQEBBQADggEPADCCAQoCggEBANAgXCLTz5mO/0yQsxMmVtxWA4TB
9oFF0AnJg52340JPqMrNTG1+QgUfxh225ro5tasV/XF9HeVnBbXKSu3Xh99rcQQi
ZF8TdXepEw4/a7lAVynSMrk5pYyrnYsa8BbJoqwLZL9DvpSGBowAD1fI/xfJ3jUR
3XoixEsELOoHWyvv9zPYTnbC2VqyVBsx6ppMXxThC+J3Fiyd9q1XysuXHh2MgZpg
eLbf7olnhjDyAunPUAKea1v0fEj5y596mughx5/wNyooVprp4eIrNeDAeuvANzt9
HP+/hkOXCsisFVVYMTjXRotMeIc5C89rmaiDUwIkEzhrwNY1ZJhY1kdT9w0CAwEA
AaOB1DCB0TAOBgNVHQ8BAf8EBAMCAQYwEgYDVR0TAQH/BAgwBgEB/wIBADAdBgNV
HQ4EFgQUanIpDa21fD4smcOPG1TQleqFqm8wHwYDVR0jBBgwFoAUQTATKWxqHvzb
Sp/cxE1Jq+fve7QwOgYIKwYBBQUHAQEELjAsMCoGCCsGAQUFBzAChh5odHRwOi8v
Z3JlZW4ubm8vY2Evcm9vdC1jYS5jZXIwLwYDVR0fBCgwJjAkoCKgIIYeaHR0cDov
L2dyZWVuLm5vL2NhL3Jvb3QtY2EuY3JsMA0GCSqGSIb3DQEBBQUAA4IBAQCCAbci
/GeCQBIGDFJdzFo2DM0Vaas5PLXH3LmVVbZXmuZmaPicW/ZQIux9lmcamatb/mKb
dLyc3vMlIC6awHhDT5qH7RiOEHv/VRzCPxKmtlGTTCAGLirRRJSryyH23DPuVuXR
ayy36JRjIvaKkQH/nOoN3nUHYlm8GbBDq/5eZ72HV2YxbB+VWUBvDxoxmUKPtfKb
7QiyXJIa1dP6F5AMe/HeaNHJCCfFCG7C25LW+MBacd2PMQsD0w3ORwymFCKf/+bT
7I/uhVRSHQ7dPnCSADGo+oqoOx0WzPTbHUgGmwMDYiFsycMUfyHGUm3B3/qSdcku
1J/octvHBtIGXW9i
-----END CERTIFICATE-----
